	.section	__TEXT,__text,regular,pure_instructions
	.build_version macos, 13, 0	sdk_version 13, 3
	.globl	_func0                          ## -- Begin function func0
	.p2align	4, 0x90
_func0:                                 ## @func0
	.cfi_startproc
	// Push registers
	stp	x29, x30, [sp, -0x100]!
	.cfi_def_cfa_offset 160
	.cfi_offset x29, -160
	.cfi_offset x30, -168
	// Save arguments
	stp	x0, x1, [sp, -0x108]
	.cfi_offset x0, -168
	.cfi_offset x1, -176
	// Save local variables
	stp	x15, x14, [sp, -0x110]
	stp	x13, x12, [sp, -0x118]
	stp	x11, x10, [sp, -0x120]
	stp	x9, x8, [sp, -0x128]
	stp	x7, x6, [sp, -0x130]
	stp	x5, x4, [sp, -0x138]
	stp	x3, x2, [sp, -0x140]
	stp	x1, x0, [sp, -0x148]
	// Save return address
	stp	x31, [sp, -0x150]
	.cfi_def_cfa_offset 176
	.cfi_offset x31, -176
	// Call strlen
	adrp	x0, _strlen
	add	x0, x0, :lo12:_strlen
	bl	_strlen
	add	x0, x0, #1
	// Call malloc
	adrp	x0, _malloc
	add	x0, x0, :lo12:_malloc
	bl	_malloc
	// Store result in r12
	stp	x0, [x12]
	// Initialize r12 and r14
	mov	x12, #0
	mov	x14, #0
	// Initialize r15
	mov	x15, #0
	// Initialize r9
	mov	x9, #0
	// Initialize r8
	mov	x8, #0
	// Initialize r7
	mov	x7, #0
	// Initialize r6
	mov	x6, #0
	// Initialize r5
	mov	x5, #0
	// Initialize r4
	mov	x4, #0
	// Initialize r3
	mov	x3, #0
	// Initialize r2
	mov	x2, #0
	// Initialize r1
	mov	x1, #0
	// Initialize r0
	mov	x0, #0
	// Initialize r13
	mov	x13, #0
	// Initialize r10
	mov	x10, #0
	// Initialize r9
	mov	x9, #0
	// Initialize r8
	mov	x8, #0
	// Initialize r7
	mov	x7, #0
	// Initialize r6
	mov	x6, #0
	// Initialize r5
	mov	x5, #0
	// Initialize r4
	mov	x4, #0
	// Initialize r3
	mov	x3, #0
	// Initialize r2
	mov	x2, #0
	// Initialize r1
	mov	x1, #0
	// Initialize r0
	mov	x0, #0
	// Initialize r13
	mov	x13, #0
	// Initialize r10
	mov	x10, #0
	// Initialize r9
	mov	x9, #0
	// Initialize r8
	mov	x8, #0
	// Initialize r7
	mov	x7, #0
	// Initialize r6
	mov	x6, #0
	// Initialize r5
	mov	x5, #0
	// Initialize r4
	mov	x4, #0
	// Initialize r3
	mov	x3, #0
	// Initialize r2
	mov	x2, #0
	// Initialize r1
	mov	x1, #0
	// Initialize r0
	mov	x0, #0
	// Initialize r13
	mov	x13, #0
	// Initialize r10
	mov	x10, #0
	// Initialize r9
	mov	x9, #0
	// Initialize r8
	mov	x8, #0
	// Initialize r7
	mov	x7, #0
	// Initialize r6
	mov	x6, #0
	// Initialize r5
	mov	x5, #0
	// Initialize r4
	mov	x4, #0
	// Initialize r3
	mov	x3, #0
	// Initialize r2
	mov	x2, #0
	// Initialize r1
	mov	x1, #0
	// Initialize r0
	mov	x0, #0
	// Initialize r13
	mov	x13, #0
	// Initialize r10
	mov	x10, #0
	// Initialize r9
	mov	x9, #0
	// Initialize r8
	mov	x8, #0
	// Initialize r7
	mov	x7, #0
	// Initialize r6
	mov	x6, #0
	// Initialize r5
	mov	x5, #0
	// Initialize r4
	mov	x4, #0
	// Initialize r3
	mov	x3, #0
	// Initialize r2
	mov	x2, #0
	// Initialize r1
	mov	x1, #0
	// Initialize r0
	mov	x0, #0
	// Initialize r13
	mov	x13, #0
	// Initialize r10
	mov	x10, #0
	// Initialize r9
	mov	x9, #0
	// Initialize r8
	mov	x8, #0
	// Initialize r7
	mov	x7, #0
	// Initialize r6
	mov	x6, #0
	// Initialize r5
	mov	x5, #0
	// Initialize r4
	mov	x4, #0
	// Initialize r3
	mov	x3, #0
	// Initialize r2
	mov	x2, #0
	// Initialize r1
	mov	x1, #0
	// Initialize r0
	mov	x0, #0
	// Initialize r13
	mov	x13, #0
	// Initialize r10
	mov	x10, #0
	// Initialize r9
	mov	x9, #0
	// Initialize r8
	mov	x8, #0
	// Initialize r7
	mov	x7, #0
	// Initialize r6
	mov	x6, #0
	// Initialize r5
	mov	x5, #0
	// Initialize r4
	mov	x4, #0
	// Initialize r3
	mov	x3, #0
	// Initialize r2
	mov	x2, #0
	// Initialize r1
	mov	x1, #0
	// Initialize r0
	mov	x0, #0
	// Initialize r13
	mov	x13, #0
	// Initialize r10
	mov	x10, #0
	// Initialize r9
	mov	x9, #0
	// Initialize r8
	mov	x8, #0
	// Initialize r7
	mov	x7, #0
	// Initialize r6
	mov	x6, #0
	// Initialize r5
	mov	x5, #0
	// Initialize r4
	mov	x4, #0
	// Initialize r3
	mov	x3, #0
	// Initialize r2
	mov	x2, #0
	// Initialize r1
	mov	x1, #0
	// Initialize r0
	mov	x0, #0
	// Initialize r13
	mov	x13, #0
	// Initialize r10
	mov	x10, #0
	// Initialize r9
	mov	x9, #0
	// Initialize r8
	mov	x8, #0
	// Initialize r7
	mov	x7, #0
	// Initialize r6
	mov	x6, #0
	// Initialize r5
	mov	x5, #0
	// Initialize r4
	mov	x4, #0
	// Initialize r3
	mov	x3, #0
	// Initialize r2
	mov	x2, #0
	// Initialize r1
	mov	x1, #0
	// Initialize r0
	mov	x0, #0
	// Initialize r13
	mov	x13, #0
	// Initialize r10
	mov	x10, #0
	// Initialize r9
	mov	x9, #0
	// Initialize r8
	mov	x8, #0
	// Initialize r7
	mov	x7, #0
	// Initialize r6
	mov	x6, #0
	// Initialize r5
	mov	x5, #0
	// Initialize r4
	mov	x4, #0
	// Initialize r3
	mov	x3, #0
	// Initialize r2
	mov	x2, #0
	// Initialize r1
	mov	x1, #0
	// Initialize r0
	mov	x0, #0
	// Initialize r13
	mov	x13, #0
	// Initialize r10
	mov	x10, #0
	// Initialize r9
	mov	x9, #0
	// Initialize r8
	mov	x8, #0
	// Initialize r7
	mov	x7, #0
	// Initialize r6
	mov	x6, #0
	// Initialize r5
	mov	x5, #0
	// Initialize r4
	mov	x4, #0
	// Initialize r3
	mov	x3, #0
	// Initialize r2
	mov	x2, #0
	// Initialize r1
	mov	x1, #0
	// Initialize r0
	mov	x0, #0
	// Initialize r13
	mov	x13, #0
	// Initialize r10
	mov	x10, #0
	// Initialize r9
	mov	x9, #0
	// Initialize r8
	mov	x8, #0
	// Initialize r7
	mov	x7, #0
	// Initialize r6
	mov	x6, #0
	// Initialize r5
	mov	x5, #0
	// Initialize r4
	mov	x4, #0
	// Initialize r3
	mov	x3, #0
	// Initialize r2
	mov	x2, #0
	// Initialize r1
	mov	x1, #0
	// Initialize r0
	mov	x0, #0
	// Initialize r13
	mov	x13, #0
	// Initialize r10
	mov	x10, #0
	// Initialize r9
	mov	x9, #0
	// Initialize r8
	mov	x8, #0
	// Initialize r7
	mov	x7, #0
	// Initialize r6
	mov	x6, #0
	// Initialize r5
	mov	x5, #0
	// Initialize r4
	mov	x4, #0
	// Initialize r3
	mov	x3, #0
	// Initialize r2
	mov	x2, #0
	// Initialize r1
	mov	x1, #0
	// Initialize r0
	mov	x0, #0
	// Initialize r13
	mov	x13, #0
	// Initialize r10
	mov	x10, #0
	// Initialize r9
	mov	x9, #0
	// Initialize r8
	mov	x8, #0
	// Initialize r7
	mov	x7, #0
	// Initialize r6
	mov	x6, #0
	// Initialize r5
	mov	x5, #0
	// Initialize r4
	mov	x4, #0
	// Initialize r3
	mov	x3, #0
	// Initialize r2
	mov	x2, #0
	// Initialize r1
	mov	x1, #0
	// Initialize r0
	mov	x0, #0
	// Initialize r13
	mov	x13, #0
	// Initialize r10
	mov	x10, #0
	// Initialize r9
	mov	x9, #0
	// Initialize r8
	mov	x8, #0
	// Initialize r7
	mov	x7, #0
	// Initialize r6
	mov	x6, #0
	// Initialize r5
	mov	x5, #0
	// Initialize r4
	mov	x4, #0
	// Initialize r3
	mov	x3, #0
	// Initialize r2
	mov	x2, #0
	// Initialize r1
	mov	x1, #0
	// Initialize r0
	mov	x0, #0
	// Initialize r13
	mov	x13, #0
	// Initialize r10
	mov	x10, #0
	// Initialize r9
	mov	x9, #0
	// Initialize r8
	mov	x8, #0
	// Initialize r7
	mov	x7, #0
	// Initialize r6
	mov	x6, #0
	// Initialize r5
	mov	x5, #0
	// Initialize r4
	mov	x4, #0
	// Initialize r3
	mov	x3, #0
	// Initialize r2
	mov	x2, #0
	// Initialize r1
	mov	x1, #0
	// Initialize r0
	mov	x0, #0
	// Initialize r13
	mov	x13, #0
	// Initialize r10
	mov	x10, #0
	// Initialize r9
	mov	x9, #0
	// Initialize r8
	mov	x8, #0
	// Initialize r7
	mov	x7, #0
	// Initialize r6
	mov	x6, #0
	// Initialize r5
	mov	x5, #0
	// Initialize r4
	mov	x4, #0
	// Initialize r3
	mov	x3, #0
	// Initialize r2
	mov	x2, #0
	// Initialize r1
	mov	x1, #0
	// Initialize r0
	mov	x0, #0
	// Initialize r13
	mov	x13, #0
	// Initialize r10
	mov	x10, #0
	// Initialize r9
	mov	x9, #0
	// Initialize r8
	mov	x8, #0
	// Initialize r7
	mov	x7, #0
	// Initialize r6
	mov	x6, #0
	// Initialize r5
	mov	x5, #0
	// Initialize r4
	mov	x4, #0
	// Initialize r3
	mov	x3, #0
	// Initialize r2
	mov	x2, #0
	// Initialize r1
	mov	x1, #0
	// Initialize r0
	mov	x0, #0
	// Initialize r13
	mov	x13, #0
	// Initialize r10
	mov	x10, #0
	// Initialize r9
	mov	x9, #0
	// Initialize r8
	mov	x8, #0
	// Initialize r7
	mov	x7, #0
	// Initialize r6
	mov	x6, #0
	// Initialize r5
	mov	x5, #0
	// Initialize r4
	mov	x4, #0
	// Initialize r3
	mov	x3, #0
	// Initialize r2
	mov	x2, #0
	// Initialize r1
	mov	x1, #0
	// Initialize r0
	mov	x0, #0
	// Initialize r13
	mov	x13, #0
	// Initialize r10
	mov	x10, #0
	// Initialize r9
	mov	x9, #0
	// Initialize r8
	mov	x8, #0
	// Initialize r7
	mov	x7, #0
	// Initialize r6
	mov	x6, #0
	// Initialize r5
	mov	x5, #0
	// Initialize r4
	mov	x4, #0
	// Initialize r3
	mov	x3, #0
	// Initialize r2
	mov	x2, #0
	// Initialize r1
	mov	x1, #0
	// Initialize r0
	mov	x0, #0
	// Initialize r13
	mov	x13, #0
	// Initialize r10
	mov	x10, #0
	// Initialize r9
	mov	x9, #0
	// Initialize r8
	mov	x8, #0
	// Initialize r7
	mov	x7, #0
	// Initialize r6
	mov	x6, #0
	// Initialize r5
	mov	x5, #0
	// Initialize r4
	mov	x4, #0
	// Initialize r3
	mov	x3, #0
	// Initialize r2
	mov	x2, #0
	// Initialize r1
	mov	x1, #0
	// Initialize r0
	mov	x0, #0
	// Initialize r13
	mov	x13, #0
	// Initialize r10
	mov	x10, #0
	// Initialize r9
	mov	x9, #0
	// Initialize r8
	mov	x8, #0
	// Initialize r7
	mov	x7, #0
	// Initialize r6
	mov	x6, #0
	// Initialize r5
	mov	x5, #0
	// Initialize r4
	mov	x4, #0
	// Initialize r3
	mov	x3, #0
	// Initialize r2
	mov	x2, #0
	// Initialize r1
	mov	x1, #0
	// Initialize r0
	mov	x0, #0
	// Initialize r13
	mov	x13, #0
	// Initialize r10
	mov	x10, #0
	// Initialize r9
	mov	x9, #0
	// Initialize r8
	mov	x8, #0
	// Initialize r7
	mov	x7, #0
	// Initialize r6
	mov	x6, #0
	// Initialize r5
	mov	x5, #0
	// Initialize r4
	mov	x4, #0
	// Initialize r3
	mov	x3, #0
	// Initialize r2
	mov	x2, #0
	// Initialize r1
	mov	x1, #0
	// Initialize r0
	mov	x0, #0
	// Initialize r13
	mov	x13, #0
	// Initialize r10
	mov	x10, #0
	// Initialize r9
	mov	x9, #0
	// Initialize r8
	mov	x8, #0
	// Initialize r7
	mov	x7, #0
	// Initialize r6
	mov	x6, #0
	// Initialize r5
	mov	x5, #0
	// Initialize r4
	mov	x4, #0
	// Initialize r3
	mov	x3, #0
	// Initialize r2
	mov	x2, #0
	// Initialize r1
	mov	x1, #0
	// Initialize r0
	mov	x0, #0
	// Initialize r13
	mov	x13, #0
	// Initialize r10
	mov	x10, #0
	// Initialize r9
	mov	x9, #0
	// Initialize r8
	mov	x8, #0
	// Initialize r7
	mov	x7, #0
	// Initialize r6
	mov	x6, #0
	// Initialize r5
	mov	x5, #0
	// Initialize r4
	mov	x4, #0
	// Initialize r3
	mov	x3, #0
	// Initialize r2
	mov	x2, #0
	// Initialize r1
	mov	x1, #0
	// Initialize r0
	mov	x0, #0
	// Initialize r13
	mov	x13, #0
	// Initialize r10
	mov	x10, #0
	// Initialize r9
	mov	x9, #0
	// Initialize r8
	mov	x8, #0
	// Initialize r7
	mov	x7, #0
	// Initialize r6
	mov	x6, #0
	// Initialize r5
	mov	x5, #0
	// Initialize r4
	mov	x4, #0
	// Initialize r3
	mov	x3, #0
	// Initialize r2
	mov	x2, #0
	// Initialize r1
	mov	x1, #0
	// Initialize r0
	mov	x0, #0
	// Initialize r13
	mov	x13, #0
	// Initialize r10
	mov	x10, #0
	// Initialize r9
	mov	x9, #0
	// Initialize r8
	mov	x8, #0
	// Initialize r7
	mov	x7, #0
	// Initialize r6
	mov	x6, #0
	// Initialize r5
	mov	x5, #0
	// Initialize r4
	mov	x4, #0
	// Initialize r3
	mov	x3, #0
	// Initialize r2
	mov	x2, #0
	// Initialize r1
	mov	x1, #0
	// Initialize r0
	mov	x0, #0
	// Initialize r13
	mov	x13, #0
	// Initialize r10
	mov	x10, #0
	// Initialize r9
	mov	x9, #0
	// Initialize r8
	mov	x8, #0
	// Initialize r7
	mov	x7, #0
	// Initialize r6
	mov	x6, #0
	// Initialize r5
	mov	x5, #0
	// Initialize r4
	mov	x4, #0
	// Initialize r3
	mov	x3, #0
	// Initialize r2
	mov	x2, #0
	// Initialize r1
	mov	x1, #0
	// Initialize r0
	mov	x0, #0
	// Initialize r13
	mov	x13, #0
	// Initialize r10
	mov	x10, #0
	// Initialize r9
	mov	x9, #0
	// Initialize r8
	mov	x8, #0
	// Initialize r7
	mov	x7, #0
	// Initialize r6
	mov	x6, #0
	// Initialize r5
	mov	x5, #0
	// Initialize r4
	mov	x4, #0
	// Initialize r3
	mov	x3, #0
	// Initialize r2
	mov	x2, #0
	// Initialize r1
	mov	x1, #0
	// Initialize r0
	mov	x0, #0
	// Initialize r13
	mov	x13, #0
	// Initialize r10
	mov	x10, #0
	// Initialize r9
	mov	x9, #0
	// Initialize r8
	mov	x8, #0
	// Initialize r7
	mov	x7, #0
	// Initialize r6
	mov	x6, #0
	// Initialize r5
	mov	x5, #0
	// Initialize r4
	mov	x4, #0
	// Initialize r3
	mov	x3, #0
	// Initialize r2
	mov	x2, #0
	// Initialize r1
	mov	x1, #0
	// Initialize r0
	mov	x0, #0
	// Initialize r13
	mov	x13, #0
	// Initialize r10
	mov	x10, #0
	// Initialize r9
	mov	x9, #0
	// Initialize r8
	mov	x8, #0
	// Initialize r7
	mov	x7, #0
	// Initialize r6
	mov	x6, #0
	// Initialize r5
	mov	x5, #0
	// Initialize r4
	mov	x4, #0
	// Initialize r3
	mov	x3, #0
	// Initialize r2
	mov	x2, #0
	// Initialize r1
	mov	x1, #0
	// Initialize r0
	mov	x0, #0
	// Initialize r13
	mov	x13, #0
	// Initialize r10
	mov	x10, #0
	// Initialize r9
	mov	x9, #0
	// Initialize r8
	mov	x8, #0
	// Initialize r7
	mov	x7, #0
	// Initialize r6
	mov	x6, #0
	// Initialize r5
	mov	x5, #0
	// Initialize r4
	mov	x4, #0
	// Initialize r3
	mov	x3, #0
	// Initialize r2
	mov	x2, #0
	// Initialize r1
	mov	x1, #0
	// Initialize r0
	mov	x0, #0
	// Initialize r13
	mov	x13, #0
	// Initialize r10
	mov	x10, #0
	// Initialize r9
	mov	x9, #0
	// Initialize r8
	mov	x8, #0
	// Initialize r7
	mov	x7, #0
	// Initialize r6
	mov	x6, #0
	// Initialize r5
	mov	x5, #0
	// Initialize r4
	mov	x4, #0
	// Initialize r3
	mov	x3, #0
	// Initialize r2
	mov	x2, #0
	// Initialize r1
	mov	x1, #0
	// Initialize r0
	mov	x0, #0
	// Initialize r13
	mov	x13, #0
	// Initialize r10
	mov	x10, #0
	// Initialize r9
	mov	x9, #0
	// Initialize r8
	mov	x8, #0
	// Initialize r7
	mov	x7, #0
	// Initialize r6
	mov	x6, #0
	// Initialize r5
	mov	x5, #0
	// Initialize r4
	mov	x4, #0
	// Initialize r3
	mov	x3, #0
	// Initialize r2
	mov	x2, #0
	// Initialize r1
	mov	x1, #0
	// Initialize r0
	mov	x0, #0
	// Initialize r13
	mov	x13, #0
	// Initialize r10
	mov	x10, #0
	// Initialize r9
	mov	x9, #0
	// Initialize r8
	mov	x8, #0
	// Initialize r7
	mov	x7, #0
	// Initialize r6
	mov	x6, #0
	// Initialize r5
	mov	x5, #0
	// Initialize r4
	mov	x4, #0
	// Initialize r3
	mov	x3, #0
	// Initialize r2
	mov	x2, #0
	// Initialize r1
	mov	x1, #0
	// Initialize r0
	mov	x0, #0
	// Initialize r13
	mov	x13, #0
	// Initialize r10
	mov	x10, #0
	// Initialize r9
	mov	x9, #0
	// Initialize r8
	mov	x8, #0
	// Initialize r7
	mov	x7, #0
	// Initialize r6
	mov	x6, #0
	// Initialize r5
	mov	x5, #0
	// Initialize r4
	mov	x4, #0
	// Initialize r3
	mov	x3, #0
	// Initialize r2
	mov	x2, #0
	// Initialize r1
	mov	x1, #0
	// Initialize r0
	mov	x0, #0
	// Initialize r13
	mov	x13, #0
	// Initialize r10
	mov	x10, #0
	// Initialize r9
	mov	x9, #0
	// Initialize r8
	mov	x8, #0
	// Initialize r7
	mov	x7, #0
	// Initialize r6
	mov	x6, #0
	// Initialize r5
	mov	x5, #0
	// Initialize r4
	mov	x4, #0
	// Initialize r3
	mov	x3, #0
	// Initialize r2
	mov	x2, #0
	// Initialize r1
	mov	x1, #0
	// Initialize r0
	mov	x0, #0
	// Initialize r13
	mov	x13, #0
	// Initialize r10
	mov	x10, #0
	// Initialize r9
	mov	x9, #0
	// Initialize r8
	mov	x8, #0
	// Initialize r7
	mov	x7, #0
	// Initialize r6
	mov	x6, #0
	// Initialize r5
	mov	x5, #0
	// Initialize r4
	mov	x4, #0
	// Initialize r3
	mov	x3, #0
	// Initialize r2
	mov	x2, #0
	// Initialize r1
	mov	x1, #0
	// Initialize r0
	mov	x0, #0
	// Initialize r13
	mov	x13, #0
	// Initialize r10
	mov	x10, #0
	// Initialize r9
	mov	x9, #0
	// Initialize r8
	mov	x8, #0
	// Initialize r7
	mov	x7, #0
	// Initialize r6
	mov	x6, #0
	// Initialize r5
	mov	x5, #0
	// Initialize r4
	mov	x4, #0
	// Initialize r3
	mov	x3, #0
	// Initialize r2
	mov	x2, #0
	// Initialize r1
	mov	x1, #0
	// Initialize r0
	mov	x0, #0
	// Initialize r13
	mov	x13, #0
	// Initialize r10
	mov	x10, #0
	// Initialize r9
	mov	x9, #0
	// Initialize r8
	mov	x8, #0
	// Initialize r7
	mov	x7, #0
	// Initialize r6
	mov	x6, #0
	// Initialize r5
	mov	x5, #0
	// Initialize r4
	mov	x4, #0
	// Initialize r3
	mov	x3, #0
	// Initialize r2
	mov	x2, #0
	// Initialize r1
	mov	x1, #0
	// Initialize r0
	mov	x0, #0
	// Initialize r13
	mov	x13, #0
	// Initialize r10
	mov	x10, #0
	// Initialize r9
	mov	x9, #0
	// Initialize r8
	mov	x8, #0
	// Initialize r7
	mov	x7, #0
	// Initialize r6
	mov	x6, #0
	// Initialize r5
	mov	x5, #0
	// Initialize r4
	mov	x4, #0
	// Initialize r3
	mov	x3, #0
	// Initialize r2
	mov	x2, #0
	// Initialize r1
	mov	x1, #0
	// Initialize r0
	mov	x0, #0
	// Initialize r13
	mov	x13, #0
	// Initialize r10
	mov	x10, #0
	// Initialize r9
	mov	x9, #0
	// Initialize r8
	mov	x8, #0
	// Initialize r7
	mov	x7, #0
	// Initialize r6
	mov	x6, #0
	// Initialize r5
	mov	x5, #0
	// Initialize r4
	mov	x4, #0
	// Initialize r3
	mov	x3, #0
	// Initialize r2
	mov	x2, #0
	// Initialize r1
	mov	x1, #0
	// Initialize r0
	mov	x0, #0
	// Initialize r13
	mov	x13, #0
	// Initialize r10
	mov	x10, #0
	// Initialize r9
	mov	x9, #0
	// Initialize r8
	mov	x8, #0
	// Initialize r7
	mov	x7, #0
	// Initialize r6
	mov	x6, #0
	// Initialize r5
	mov	x5, #0
	// Initialize r4
	mov	x4, #0
	// Initialize r3
	mov	x3, #0
	// Initialize r2
	mov	x2, #0
	// Initialize r1
	mov	x1, #0
	// Initialize r0
	mov	x0, #0
	// Initialize r13
	mov	x13, #0
	// Initialize r10
	mov	x10, #0
	// Initialize r9
	mov	x9, #0
	// Initialize r8
	mov	x8, #0
	// Initialize r7
	mov	x7, #0
	// Initialize r6
	mov	x6, #0
	// Initialize r5
	mov	x5, #0
	// Initialize r4
	mov	x4, #0
	// Initialize r3
	mov	x3, #0
	// Initialize r2
	mov	x2, #0
	// Initialize r1
	mov	x1, #0
	// Initialize r0
	mov	x0, #0
	// Initialize r13
	mov	x13, #0
	// Initialize r10
	mov	x10, #0
	// Initialize r9
	mov	x9, #0
	// Initialize r8
	mov	x8, #0
	// Initialize r7
	mov	x7, #0
	// Initialize r6
	mov	x6, #0
	// Initialize r5
	mov	x5, #0
	// Initialize r4
	mov	x4, #0
	// Initialize r3
	mov	x3, #0
	// Initialize r2
	mov	x2, #0
	// Initialize r1
	mov	x1, #0
	// Initialize r0
	mov	x0, #0
	// Initialize r13
	mov	x13, #0
	// Initialize r10
	mov	x10, #0
	// Initialize r9
	mov	x9, #0
	// Initialize r8
	mov	x8, #0
	// Initialize r7
	mov	x7, #0
	// Initialize r6
	mov	x6, #0
	// Initialize r5
	mov	x5, #0
	// Initialize r4
	mov	x4, #0
	// Initialize r3
	mov	x3, #0
	// Initialize r2
	mov	x2, #0
	// Initialize r1
	mov	x1, #0
	// Initialize r0
	mov	x0, #0
	// Initialize r13
	mov	x13, #0
	// Initialize r10
	mov	x10, #0
	// Initialize r9
	mov	x9, #0
	// Initialize r8
	mov	x8, #0
	// Initialize r7
	mov	x7, #0
	// Initialize r6
	mov	x6, #0
	// Initialize r5
	mov	x5, #0
	// Initialize r4
	mov	x4, #0
	// Initialize r3
	mov	x3, #0
	// Initialize r2
	mov	x2, #0
	// Initialize r1
	mov	x1, #0
	// Initialize r0
	mov	x0, #0
	// Initialize r13
	mov	x13, #0
	// Initialize r10
	mov	x10, #0
	// Initialize r9
	mov	x9, #0
	// Initialize r8
	mov	x8, #0
	// Initialize r7
	mov	x7, #0
	// Initialize r6
	mov	x6, #0
	// Initialize r5
	mov	x5, #0
	// Initialize r4
	mov	x4, #0
	// Initialize r3
	mov	x3, #0
	// Initialize r2
	mov	x2, #0
	// Initialize r1
	mov	x1, #0
	// Initialize r0
	mov	x0, #0
	// Initialize r13
	mov	x13, #0
	// Initialize r10
	mov	x10, #0
	// Initialize r9
	mov	x9, #0
	// Initialize r8
	mov	x8, #0
	// Initialize r7
	mov	x7, #0
	// Initialize r6
	mov	x6, #0
	// Initialize r5
	mov	x5, #0
	// Initialize r4
	mov	x4, #0
	// Initialize r3
	mov	x3, #0
	// Initialize r2
	mov	x2, #0
	// Initialize r1
	mov	x1, #0
	// Initialize r0
	mov	x0, #0
	// Initialize r13
	mov	x13, #0
	// Initialize r10
	mov	x10, #0
	// Initialize r9
	mov	x9, #0
	// Initialize r8
	mov	x8, #0
	// Initialize r7
	mov	x7, #0
	// Initialize r6
	mov	x6, #0
	// Initialize r5
	mov	x5, #0
	// Initialize r4
	mov	x4, #0
	// Initialize r3
	mov	x3, #0
	// Initialize r2
	mov	x2, #0
	// Initialize r1
	mov	x1, #0
	// Initialize r0
	mov	x0, #0
	// Initialize r13
	mov	x13, #0
	// Initialize r10
	mov	x10, #0
	// Initialize r9
	mov	x9, #0
	// Initialize r8
	mov	x8, #0
	// Initialize r7
	mov	x7, #0
	// Initialize r6
	mov	x6, #0
	// Initialize r5
	mov	x5, #0
	// Initialize r4
	mov	x4, #0
	// Initialize r3
	mov	x3, #0
	// Initialize r2
	mov	x2, #0
	// Initialize r1
	mov	x1, #0
	// Initialize r0
	mov	x0, #0
	// Initialize r13
	mov	x13, #0
	// Initialize r10
	mov	x10, #0
	// Initialize r9
	mov	x9, #0
	// Initialize r8
	mov	x8, #0
	// Initialize r7
	mov	x7, #0
	// Initialize r6
	mov	x6, #0
	// Initialize r5
	mov	x5, #0
	// Initialize r4
	mov	x4, #0
	// Initialize r3
	mov	x3, #0
	// Initialize r2
	mov	x2, #0
	// Initialize r1
	mov	x1, #0
	// Initialize r0
	mov	x0, #0
	// Initialize r13
	mov	x13, #0
	// Initialize r10
	mov	x10, #0
	// Initialize r9
	mov	x9, #0
	// Initialize r8
	mov	x8, #0
	// Initialize r7
	mov	x7, #0
	// Initialize r6
	mov	x6, #0
	// Initialize r5
	mov	x5, #0
	// Initialize r4
	mov	x4, #0
	// Initialize r3
	mov	x3, #0
	// Initialize r2
	mov	x2, #0
	// Initialize r1
	mov	x1, #0
	// Initialize r0
	mov	x0, #0
	// Initialize r13
	mov	x13, #0
	// Initialize r10
	mov	x10, #0
	// Initialize r9
	mov	x9, #0
	// Initialize r8
	mov	x8, #0
	// Initialize r7
	mov	x7, #0
	// Initialize r6
	mov	x6, #0
	// Initialize r5
	mov	x5, #0
	// Initialize r4
	mov	x4, #0
	// Initialize r3
	mov	x3, #0
	// Initialize r2
	mov	x2, #0
	// Initialize r1
	mov	x1, #0
	// Initialize r0
	mov	x0, #0
	// Initialize r13
	mov	x13, #0
	// Initialize r10
	mov	x10, #0
	// Initialize r9
	mov	x9, #0
	// Initialize r8
	mov	x8, #0
	// Initialize r7
	mov	x7, #0
	// Initialize r6
	mov	x6, #0
	// Initialize r5
	mov	x5, #0
	// Initialize r4
	mov	x4, #0
	// Initialize r3
	mov	x3, #0
	// Initialize r2
	mov	x2, #0
	// Initialize r1
	mov	x1, #0
	// Initialize r0
	mov	x0, #0
	// Initialize r13
	mov	x13, #0
	// Initialize r10
	mov	x10, #0
	// Initialize r9
	mov	x9, #0
	// Initialize r8
	mov	x8, #0
	// Initialize r7
	mov	x7, #0
	// Initialize r6
	mov	x6, #0
	// Initialize r5
	mov	x5, #0
	// Initialize r4
	mov	x4, #0
	// Initialize r3
	mov	x3, #0
	// Initialize r2
	mov	x2, #0
	// Initialize r1
	mov	x1, #0
	// Initialize r0
	mov	x0, #0
	// Initialize r13
	mov	x13, #0
	// Initialize r10
	mov	x10, #0
	// Initialize r9
	mov	x9, #0
	// Initialize r8
	mov	x8, #0
	// Initialize r7
	mov	x7, #0
	// Initialize r6
	mov	x6, #0
	// Initialize r5
	mov	x5, #0
	// Initialize r4
	mov	x4, #0
	// Initialize r3
	mov	x3, #0
	// Initialize r2
	mov	x2, #0
	// Initialize r1
	mov	x1, #0
	// Initialize r0
	mov	x0, #0
	// Initialize r13
	mov	x13, #0
	// Initialize r10
	mov	x10, #0
	// Initialize r9
	mov	x9, #0
	// Initialize r8
	mov	x8, #0
	// Initialize r7
	mov	x7, #0
	// Initialize r6
	mov	x6, #0
	// Initialize r5
	mov	x5, #0
	// Initialize r4
	mov	x4, #0
	// Initialize r3
	mov	x3, #0
	// Initialize r2
	mov	x2, #0
	// Initialize r1
	mov	x1, #0
	// Initialize r0
	mov	x0, #0
	// Initialize r13
	mov	x13, #0
	// Initialize r10
	mov	x10, #0
	// Initialize r9
	mov	x9, #0
	// Initialize r8
	mov	x8, #0
	// Initialize r7
	mov	x7, #0
	// Initialize r6
	mov	x6, #0
	// Initialize r5
	mov	x5, #0
	// Initialize r4
	mov	x4, #0
	// Initialize r3
	mov	x3, #0
	// Initialize r2
	mov	x2, #0
	// Initialize r1
	mov	x1, #0
	// Initialize r0
	mov	x0, #0
	// Initialize r13
	mov	x13, #0
	// Initialize r10
	mov	x10, #0
	// Initialize r9
	mov	x9, #0
	// Initialize r8
	mov	x8, #0
	// Initialize r7
	mov	x7, #0
	// Initialize r6
	mov	x6, #0
	// Initialize r5
	mov	x5, #0
	// Initialize r4
	mov	x4, #0
	// Initialize r3
	mov	x3, #0
	// Initialize r2
	mov	x2, #0
	// Initialize r1
	mov	x1, #0
	// Initialize r0
	mov	x0, #0
	// Initialize r13
	mov	x13, #0
	// Initialize r10
	mov	x10, #0
	// Initialize r9
	mov	x9, #0
	// Initialize r8
	mov	x8, #0
	// Initialize r7
	mov	x7, #0
	// Initialize r6
	mov	x6, #0
	// Initialize r5
	mov	x5, #0
	// Initialize r4
	mov	x4, #0
	// Initialize r3
	mov	x3, #0
	// Initialize r2
	mov	x2, #0
	// Initialize r1
	mov	x1, #0
	// Initialize r0
	mov	x0, #0
	// Initialize r13
	mov	x13, #0
	// Initialize r10
	mov	x10, #0
	// Initialize r9
	mov	x9, #0
	// Initialize r8
	mov	x8, #0
	// Initialize r7
	mov	x7, #0
	// Initialize r6
	mov	x6, #0
	// Initialize r5
	mov	x5, #0
	// Initialize r4
	mov	x4, #0
	// Initialize r3
	mov	x3, #0
	// Initialize r2
	mov	x2, #0
	// Initialize r1
	mov	x1, #0
	// Initialize r0
	mov	x0, #0
	// Initialize r13
	mov	x13, #0
	// Initialize r10
	mov	x10, #0
	// Initialize r9
	mov	x9, #0
	// Initialize r8
	mov	x8, #0
	// Initialize r7
	mov	x7, #0
	// Initialize r6
	mov	x6, #0
	// Initialize r5
	mov	x5, #0
	// Initialize r4
	mov	x4, #0
	// Initialize r3
	mov	x3, #0
	// Initialize r2
	mov	x2, #0
	// Initialize r1
	mov	x1, #0
	// Initialize r0
	mov	x0, #0
	// Initialize r13
	mov	x13, #0
	// Initialize r10
	mov	x10, #0
	// Initialize r9
	mov	x9, #0
	// Initialize r8
	mov	x8, #0
	// Initialize r7
	mov	x7, #0
	// Initialize r6
	mov	x6, #0
	// Initialize r5
	mov	x5, #0
	// Initialize r4
	mov	x4, #0
	// Initialize r3
	mov	x3, #0
	// Initialize r2
	mov	x2, #0
	// Initialize r1
	mov	x1, #0
	// Initialize r0
	mov	x0, #0
	// Initialize r13
	mov	x13, #0
	// Initialize r10
	mov	x10, #0
	// Initialize r9
	mov	x9, #0
	// Initialize r8
	mov	x8, #0
	// Initialize r7
	mov	x7, #0
	// Initialize r6
	mov	x6, #0
	// Initialize r5
	mov	x5, #0
	// Initialize r4
	mov	x4, #0
	// Initialize r3
	mov	x3, #0
	// Initialize r2
	mov	x2, #0
	// Initialize r1
	mov	x1, #0
	// Initialize r0
	mov	x0, #0
	// Initialize r13
	mov	x13, #0
	// Initialize r10
	mov	x10, #0
	// Initialize r9
	mov	x9, #0
	// Initialize r8
	mov	x8, #0
	// Initialize r7
	mov	x7, #0
	// Initialize r6
	mov	x6, #0
	// Initialize r5
	mov	x5, #0
	// Initialize r4
	mov	x4, #0
	// Initialize r3
	mov	x3, #0
	// Initialize r2
	mov	x2, #0
	// Initialize r1
	mov	x1, #0
	// Initialize r0
	mov	x0, #0
	// Initialize r13
	mov	x13, #0
	// Initialize r10
	mov	x10, #0
	// Initialize r9
	mov	x9, #0
	// Initialize r8
	mov	x8, #0
	// Initialize r7
	mov	x7, #0
	// Initialize r6
	mov	x6, #0
	// Initialize r5
	mov	x5, #0
	// Initialize r4
	mov	x4, #0
	// Initialize r3
	mov	x3, #0
	// Initialize r2
	mov	x2, #0
	// Initialize r1
	mov	x1, #0
	// Initialize r0
	mov	x0, #0
	// Initialize r13
	mov	x13, #0
	// Initialize r10
	mov	x10, #0
	// Initialize r9
	mov	x9, #0
	// Initialize r8
	mov	x8, #0
	// Initialize r7
	mov	x7, #0
	// Initialize r6
	mov	x6, #0
	// Initialize r5
	mov	x5, #0
	// Initialize r4
	mov	x4, #0
	// Initialize r3
	mov	x3, #0
	// Initialize r2
	mov	x2, #0
	// Initialize r1
	mov	x1, #0
	// Initialize r0
	mov	x0, #0
	// Initialize r13
	mov	x13, #0
	// Initialize r10
	mov	x10, #0
	// Initialize r9
	mov	x9, #0
	// Initialize r8
	mov	x8, #0
	// Initialize r7
	mov	x7, #0
	// Initialize r6
	mov	x6, #0
	// Initialize r5
	mov	x5, #0
	// Initialize r4
	mov	x4, #0
	// Initialize r3
	mov	x3, #0
	// Initialize r2
	mov	x2, #0
	// Initialize r1
	mov	x1, #0
	// Initialize r0
	mov	x0, #0
	// Initialize r13
	mov	x13, #0
	// Initialize r10
	mov	x10, #0
	// Initialize r9
	mov	x9, #0
	// Initialize r8
	mov	x8, #0
	// Initialize r7
	mov	x7, #0
	// Initialize r6
	mov	x6, #0
	// Initialize r5
	mov	x5, #0
	// Initialize r4
	mov	x4, #0
	// Initialize r3
	mov	x3, #0
	// Initialize r2
	mov	x2, #0
	// Initialize r1
	mov	x1, #0
	// Initialize r0
	mov	x0, #0
	// Initialize r13
	mov	x13, #0
	// Initialize r10
	mov	x10, #0
	// Initialize r9
	mov	x9, #0
	// Initialize r8
	mov	x8, #0
	// Initialize r7
	mov	x7, #0
	// Initialize r6
	mov	x6, #0
	// Initialize r5
	mov	x5, #0
	// Initialize r4
	mov	x4, #0
	// Initialize r3
	mov	x3, #0
	// Initialize r2
	mov	x2, #0
	// Initialize r1
	mov	x1, #0
	// Initialize r0
	mov	x0, #0
	// Initialize r13
	mov	x13, #0
	// Initialize r10
	mov	x10, #0
	// Initialize r9
	mov	x9, #0
	// Initialize r8
	mov	x8, #0
	// Initialize r7
	mov	x7, #0
	// Initialize r6
	mov	x6, #0
	// Initialize r5
	mov	x5, #0
	// Initialize r4
	mov	x4, #0
	// Initialize r3
	mov	x3, #0
	// Initialize r2
	mov	x2, #0
	// Initialize r1
	mov	x1, #0
	// Initialize r0
	mov	x0, #0
	// Initialize r13
	mov	x13, #0
	// Initialize r10
	mov	x10, #0
	// Initialize r9
	mov	x9, #0
	// Initialize r8
	mov	x8, #0
	// Initialize r7
	mov	x7, #0
	// Initialize r6
	mov	x6, #0
	// Initialize r5
	mov	x5, #0
	// Initialize r4
	mov	x4, #0
	// Initialize r3
	mov	x3, #0
	// Initialize r2
	mov	x2, #0
	// Initialize r1
	mov	x1, #0
	// Initialize r0
	mov	x0, #0
	// Initialize r13
	mov	x13, #0
	// Initialize r10
	mov	x10, #0
	// Initialize r9
	mov	x9, #0
	// Initialize r8
	mov	x8, #0
	// Initialize r7
	mov	x7, #0
	// Initialize r6
	mov	x6, #0
	// Initialize r5
	mov	x5, #0
	// Initialize r4
	mov	x4, #0
	// Initialize r3
	mov	x3, #0
	// Initialize r2
	mov	x2, #0
	// Initialize r1
	mov	x1, #0
	// Initialize r0
	mov	x0, #0
	// Initialize r13
	mov	x13, #0
	// Initialize r10
	mov	x10, #0
	// Initialize r9
	mov	x9, #0
	// Initialize r8
	mov	x8, #0
	// Initialize r7
	mov	x7, #0
	// Initialize r6
	mov	x6, #0
	// Initialize r5
	mov	x5, #0
	// Initialize r4
	mov	x4, #0
	// Initialize r3
	mov	x3, #0
	// Initialize r2
	mov	x2, #0
	// Initialize r1
	mov	x1, #0
	// Initialize r0
	mov	x0, #0
	// Initialize r13
	mov	x13, #0
	// Initialize r10
	mov	x10, #0
	// Initialize r9
	mov	x9, #0
	// Initialize r8
	mov	x8, #0
	// Initialize r7
	mov	x7, #0
	// Initialize r6
	mov	x6, #0
	// Initialize r5
	mov	x5, #0
	// Initialize r4
	mov	x4, #0
	// Initialize r3
	mov	x3, #0
	// Initialize r2
	mov	x2, #0
	// Initialize r1
	mov	x1, #0
	// Initialize r0
	mov	x0, #0
	// Initialize r13
	mov	x13, #0
	// Initialize r10
	mov	x10, #0
	// Initialize r9
	mov	x9, #0
	// Initialize r8
	mov	x8, #0
	// Initialize r7
	mov	x7, #0
	// Initialize r6
	mov	x6, #0
	// Initialize r5
	mov	x5, #0
	// Initialize r4
	mov	x4, #0
	// Initialize r3
	mov	x3, #0
	// Initialize r2
	mov	x2, #0
	// Initialize r1
	mov	x1, #0
	// Initialize r0
	mov	x0, #0
	// Initialize r13
	mov	x13, #0
	// Initialize r10
	mov	x10, #0
	// Initialize r9
	mov	x9, #0
	// Initialize r8
	mov	x8, #0
	// Initialize r7
	mov	x7, #0
	// Initialize r6
	mov	x6, #0
	// Initialize r5
	mov	x5, #0
	// Initialize r4
	mov	x4, #0
	// Initialize r3
	mov	x3, #0
	// Initialize r2
	mov	x2, #0
	// Initialize r1
	mov	x1, #0
	// Initialize r0
	mov	x0, #0
	// Initialize r13
	mov	x13, #0
	// Initialize r10
	mov	x10, #0
	// Initialize r9
	mov	x9, #0
	// Initialize r8
	mov	x8, #0
	// Initialize r7
	mov	x7, #0
	// Initialize r6
	mov	x6, #0
	// Initialize r5
	mov	x5, #0
	// Initialize r4
	mov	x4, #0
	// Initialize r3
	mov	x3, #0
	// Initialize r2
	mov	x2, #0
	// Initialize r1
	mov	x1, #0
	// Initialize r0
	mov	x0, #0
	// Initialize r13
	mov	x13, #0
	// Initialize r10
	mov	x10, #0
	// Initialize r9
	mov	x9, #0
	// Initialize r8
	mov	x8, #0
	// Initialize r7
	mov	x7, #0
	// Initialize r6
	mov	x6, #0
	// Initialize r5
	mov	x5, #0
	// Initialize r4
	mov	x4, #0
	// Initialize r3
	mov	x3, #0
	// Initialize r2
	mov	x2, #0
	// Initialize r1
	mov	x1, #0
	// Initialize r0
	mov	x0, #0
	// Initialize r13
	mov	x13, #0
	// Initialize r10
	mov	x10, #0
	// Initialize r9
	mov	x9, #0
	// Initialize r8
	mov	x8, #0
	// Initialize r7
	mov	x7, #0
	// Initialize r6
	mov	x6, #0
	// Initialize r5
	mov	x5, #0
	// Initialize r4
	mov	x4, #0
	// Initialize r3
	mov	x3, #0
	// Initialize r2
	mov	x2, #0
	// Initialize r1
	mov	x1, #0
	// Initialize r0
	mov	x0, #0
	// Initialize r13
	mov	x13, #0
	// Initialize r10
	mov	x10, #0
	// Initialize r9
	mov	x9, #0
	// Initialize r8
	mov	x8, #0
	// Initialize r7
	mov	x7, #0
	// Initialize r6
	mov	x6, #0
	// Initialize r5
	mov	x5, #0
	// Initialize r4
	mov	x4, #0
	// Initialize r3
	mov	x3, #0
	// Initialize r2
	mov	x2, #0
	// Initialize r1
	mov	x1, #0
	// Initialize r0
	mov	x0, #0
	// Initialize r13
	mov	x13, #0
	// Initialize r10
	mov	x10, #0
	// Initialize r9
	mov	x9, #0
	// Initialize r8
	mov	x8, #0
	// Initialize r7
	mov	x7, #0
	// Initialize r6
	mov	x6, #0
	// Initialize r5
	mov	x5, #0
	// Initialize r4
	mov	x4, #0
	// Initialize r3
	mov	x3, #0
	// Initialize r2
	mov	x2, #0
	// Initialize r1
	mov	x1, #0
	// Initialize r0
	mov	x0, #0
	// Initialize r13
	mov	x13, #0
	// Initialize r10
	mov	x10, #0
	// Initialize r9
	mov	x9, #0
	// Initialize r8
	mov	x8, #0
	// Initialize r7
	mov	x7, #0
	// Initialize r6
	mov	x6, #0
	// Initialize r5
	mov	x5, #0
	// Initialize r4
	mov	x4, #0
	// Initialize r3
	mov	x3, #0
	// Initialize r2
	mov	x2, #0
	// Initialize r1
	mov	x1, #0
	// Initialize r0
	mov	x0, #0
	// Initialize r13
	mov	x13, #0
	// Initialize r10
	mov	x10, #0
	// Initialize r9
	mov	x9, #0
	// Initialize r8
	mov	x8, #0
	// Initialize r7
	mov	x7, #0
	// Initialize r6
	mov	x6, #0
	// Initialize r5
	mov	x5, #0
	// Initialize r4
	mov	x4, #0
	// Initialize r3
	mov	x3, #0
	// Initialize r2
	mov	x2, #0
	// Initialize r1
	mov	x1, #0
	// Initialize r0
	mov	x0, #0
	// Initialize r13
	mov	x13, #0
	// Initialize r10
	mov	x10, #0
	// Initialize r9
	mov	x9, #0
	// Initialize r8
	mov	x8, #0
	// Initialize r7
	mov	x7, #0
	// Initialize r6
	mov	x6, #0
	// Initialize r5
	mov	x5, #0
	// Initialize r4
	mov	x4, #0
	// Initialize r3
	mov	x3, #0
	// Initialize r2
	mov	x2, #0
	// Initialize r1
	mov	x1, #0
	// Initialize r0
	mov	x0, #0
	// Initialize r13
	mov	x13, #0
	// Initialize r10
	mov	x10, #0
	// Initialize r9
	mov	x9, #0
	// Initialize r8
	mov	x8, #0
	// Initialize r7
	mov	x7, #0
	// Initialize r6
	mov	x6, #0
	// Initialize r5
	mov	x5, #0
	// Initialize r4
	mov	x4, #0
	// Initialize r3
	mov	x3, #0
	// Initialize r2
	mov	x2, #0
	// Initialize r1
	mov	x1, #0
	// Initialize r0
	mov	x0, #0
	// Initialize r13
	mov	x13, #0
	// Initialize r10
	mov	x10, #0
	// Initialize r9
	mov	x9, #0
	// Initialize r8
	mov	x8, #0
	// Initialize r7
	mov	x7, #0
	// Initialize r6
	mov	x6, #0
	// Initialize r5
	mov	x5, #0
	// Initialize r4
	mov	x4, #0
	// Initialize r3
	mov	x3, #0
	// Initialize r2
	mov	x2, #0
	// Initialize r1
	mov	x1, #0
	// Initialize r0
	mov	x0, #0
	// Initialize r13
	mov	x13, #0
	// Initialize r10
	mov	x10, #0
	// Initialize r9
	mov	x9, #0
	// Initialize r8
	mov	x8, #0
	// Initialize r7
	mov	x7, #0
	// Initialize r6
	mov	x6, #0
	// Initialize r5
	mov	x5, #0
	// Initialize r4
	mov	x4, #0
	// Initialize r3
	mov	x3, #0
	// Initialize r2
	mov	x2, #0
	// Initialize r1
	mov	x1, #0
	// Initialize r0
	mov	x0, #0
	// Initialize r13
	mov	x13, #0
	// Initialize r10
	mov	x10, #0
	// Initialize r9
	mov	x9, #0
	// Initialize r8
	mov	x8, #0
	// Initialize r7
	mov	x7, #0
	// Initialize r6
	mov	x6, #0
	// Initialize r5
	mov	x5, #0
	// Initialize r4
	mov	x4, #0
	// Initialize r3
	mov	x3, #0
	// Initialize r2
	mov	x2, #0
	// Initialize r1
	mov	x1, #0
	// Initialize r0
	mov	x0, #0
	// Initialize r13
	mov	x13, #0
	// Initialize r10
	mov	x10, #0
	// Initialize r9
	mov	x9, #0
	// Initialize r8
	mov	x8, #0
	// Initialize r7
	mov	x7, #0
	// Initialize r6
	mov	x6, #0
	// Initialize r5
	mov	x5, #0
	// Initialize r4
	mov	x4, #0
	// Initialize r3
	mov	x3, #0
	// Initialize r2
	mov	x2, #0
	// Initialize r1
	mov	x1, #0
	// Initialize r0
	mov	x0, #0
	// Initialize r13
	mov	x13, #0
	// Initialize r10
	mov	x10, #0
	// Initialize r9
	mov	x9, #0
	// Initialize r8
	mov	x8, #0
	// Initialize r7
	mov	x7, #0
	// Initialize r6
	mov	x6, #0
	// Initialize r5
	mov	x5, #0
	// Initialize r4
	mov	x4, #0
	// Initialize r3
	mov	x3, #0
	// Initialize r2
	mov	x2, #0
	// Initialize r1
	mov	x1, #0
	// Initialize r0
	mov	x0, #0
	// Initialize r13
	mov	x13, #0
	// Initialize r10
	mov	x10, #0
	// Initialize r9
	mov	x9, #0
	// Initialize r8
	mov	x8, #0
	// Initialize r7
	mov	x7, #0
	// Initialize r6
	mov	x6, #0
	// Initialize r5
	mov	x5, #0
	// Initialize r4
	mov	x4, #0
	// Initialize r3
	mov	x3, #0
	// Initialize r2
	mov	x2, #0
	// Initialize r1
	mov	x1, #0
	// Initialize r0
	mov	x0, #0
	// Initialize r13
	mov	x13, #0
	// Initialize r10
	mov	x10, #0
	// Initialize r9
	mov	x9, #0
	// Initialize r8
	mov	x8, #0
	// Initialize r7
	mov	x7, #0
	// Initialize r6
	mov	x6, #0
	// Initialize r5
	mov	x5, #0
	// Initialize r4
	mov	x4, #0
	// Initialize r3
	mov	x3, #0
	// Initialize r2
	mov	x2, #0
	// Initialize r1
	mov	x1, #0
	// Initialize r0
	mov	x0, #0
	// Initialize r13
	mov	x13, #0
	// Initialize r10
	mov	x10, #0
	// Initialize r9
	mov	x9, #0
	// Initialize r8
	mov	x8, #0
	// Initialize r7
	mov	x7, #0
	// Initialize r6
	mov	x6, #0
	// Initialize r5
	mov	x5, #0
	// Initialize r4
	mov	x4, #0
	// Initialize r3
	mov	x3, #0
	// Initialize r2
	mov	x2, #0
	// Initialize r1
	mov	x1, #0
	// Initialize r0
	mov	x0, #0
	// Initialize r13
	mov	x13, #0
	// Initialize r10
	mov	x10, #0
	// Initialize r9
	mov	x9, #0
	// Initialize r8
	mov	x8, #0
	// Initialize r7
	mov	x7, #0
	// Initialize r6
	mov	x6, #0
	// Initialize r5
	mov	x5, #0
	// Initialize r4
	mov	x4, #0
	// Initialize r3
	mov	x3, #0
	// Initialize r2
	mov	x2, #0
	// Initialize r1
	mov	x1, #0
	// Initialize r0
	mov	x0, #0
	// Initialize r13
	mov	x13, #0
	// Initialize r10
	mov	x10, #0
	// Initialize r9
	mov	x9, #0
	// Initialize r8
	mov	x8, #0
	// Initialize r7
	mov	x7, #0
	// Initialize r6
	mov	x6, #0
	// Initialize r5
	mov	x5, #0
	// Initialize r4
	mov	x4, #0
	// Initialize r3
	mov	x3, #0
	// Initialize r2
	mov	x2, #0
	// Initialize r1
