	.section	.text
	.align	4
	.global	_func0
_func0:
	.push {r4-r11, lr}
	.cfi_def_cfa_offset 16
	.cfi_offset r4, -16
	.cfi_offset r5, -20
	.cfi_offset r6, -24
	.cfi_offset r7, -28
	.cfi_offset r8, -32
	.cfi_offset r9, -36
	.cfi_offset r10, -40
	.cfi_offset r11, -44
	.cfi_offset lr, -48
	ldr r4, =__stack_chk_guard
	ldr r4, [r4]
	ldr r5, [r4]
	ldr r6, [r4]
	ldr r7, [r4]
	ldr r8, [r4]
	ldr r9, [r4]
	ldr r10, [r4]
	ldr r11, [r4]
	ldr r4, [sp, #4]
	ldr r5, [sp, #8]
	ldr r6, [sp, #12]
	ldr r7, [sp, #16]
	ldr r8, [sp, #20]
	ldr r9, [sp, #24]
	ldr r10, [sp, #28]
	ldr r11, [sp, #32]
	ldr r4, [r4, #0]
	ldr r5, [r4, #4]
	ldr r6, [r4, #8]
	ldr r7, [r4, #12]
	ldr r8, [r4, #16]
	ldr r9, [r4, #20]
	ldr r10, [r4, #24]
	ldr r11, [r4, #28]
	ldr r4, [r5, #0]
	ldr r5, [r5, #4]
	ldr r6, [r5, #8]
	ldr r7, [r5, #12]
	ldr r8, [r5, #16]
	ldr r9, [r5, #20]
	ldr r10, [r5, #24]
	ldr r11, [r5, #28]
	ldr r4, [r6, #0]
	ldr r5, [r6, #4]
	ldr r6, [r6, #8]
	ldr r7, [r6, #12]
	ldr r8, [r6, #16]
	ldr r9, [r6, #20]
	ldr r10, [r6, #24]
	ldr r11, [r6, #28]
	ldr r4, [r7, #0]
	ldr r5, [r7, #4]
	ldr r6, [r7, #8]
	ldr r7, [r7, #12]
	ldr r8, [r7, #16]
	ldr r9, [r7, #20]
	ldr r10, [r7, #24]
	ldr r11, [r7, #28]
	ldr r4, [r8, #0]
	ldr r5, [r8, #4]
	ldr r6, [r8, #8]
	ldr r7, [r8, #12]
	ldr r8, [r8, #16]
	ldr r9, [r8, #20]
	ldr r10, [r8, #24]
	ldr r11, [r8, #28]
	ldr r4, [r9, #0]
	ldr r5, [r9, #4]
	ldr r6, [r9, #8]
	ldr r7, [r9, #12]
	ldr r8, [r9, #16]
	ldr r9, [r9, #20]
	ldr r10, [r9, #24]
	ldr r11, [r9, #28]
	ldr r4, [r10, #0]
	ldr r5, [r10, #4]
	ldr r6, [r10, #8]
	ldr r7, [r10, #12]
	ldr r8, [r10, #16]
	ldr r9, [r10, #20]
	ldr r10, [r10, #24]
	ldr r11, [r10, #28]
	ldr r4, [r11, #0]
	ldr r5, [r11, #4]
	ldr r6, [r11, #8]
	ldr r7, [r11, #12]
	ldr r8, [r11, #16]
	ldr r9, [r11, #20]
	ldr r10, [r11, #24]
	ldr r11, [r11, #28]
	ldr r4, [r4, #0]
	ldr r5, [r4, #4]
	ldr r6, [r4, #8]
	ldr r7, [r4, #12]
	ldr r8, [r4, #16]
	ldr r9, [r4, #20]
	ldr r10, [r4, #24]
	ldr r11, [r4, #28]
	ldr r4, [r5, #0]
	ldr r5, [r5, #4]
	ldr r6, [r5, #8]
	ldr r7, [r5, #12]
	ldr r8, [r5, #16]
	ldr r9, [r5, #20]
	ldr r10, [r5, #24]
	ldr r11, [r5, #28]
	ldr r4, [r6, #0]
	ldr r5, [r6, #4]
	ldr r6, [r6, #8]
	ldr r7, [r6, #12]
	ldr r8, [r6, #16]
	ldr r9, [r6, #20]
	ldr r10, [r6, #24]
	ldr r11, [r6, #28]
	ldr r4, [r7, #0]
	ldr r5, [r7, #4]
	ldr r6, [r7, #8]
	ldr r7, [r7, #12]
	ldr r8, [r7, #16]
	ldr r9, [r7, #20]
	ldr r10, [r7, #24]
	ldr r11, [r7, #28]
	ldr r4, [r8, #0]
	ldr r5, [r8, #4]
	ldr r6, [r8, #8]
	ldr r7, [r8, #12]
	ldr r8, [r8, #16]
	ldr r9, [r8, #20]
	ldr r10, [r8, #24]
	ldr r11, [r8, #28]
	ldr r4, [r9, #0]
	ldr r5, [r9, #4]
	ldr r6, [r9, #8]
	ldr r7, [r9, #12]
	ldr r8, [r9, #16]
	ldr r9, [r9, #20]
	ldr r10, [r9, #24]
	ldr r11, [r9, #28]
	ldr r4, [r10, #0]
	ldr r5, [r10, #4]
	ldr r6, [r10, #8]
	ldr r7, [r10, #12]
	ldr r8, [r10, #16]
	ldr r9, [r10, #20]
	ldr r10, [r10, #24]
	ldr r11, [r10, #28]
	ldr r4, [r11, #0]
	ldr r5, [r11, #4]
	ldr r6, [r11, #8]
	ldr r7, [r11, #12]
	ldr r8, [r11, #16]
	ldr r9, [r11, #20]
	ldr r10, [r11, #24]
	ldr r11, [r11, #28]
	ldr r4, [r4, #0]
	ldr r5, [r4, #4]
	ldr r6, [r4, #8]
	ldr r7, [r4, #12]
	ldr r8, [r4, #16]
	ldr r9, [r4, #20]
	ldr r10, [r4, #24]
	ldr r11, [r4, #28]
	ldr r4, [r5, #0]
	ldr r5, [r5, #4]
	ldr r6, [r5, #8]
	ldr r7, [r5, #12]
	ldr r8, [r5, #16]
	ldr r9, [r5, #20]
	ldr r10, [r5, #24]
	ldr r11, [r5, #28]
	ldr r4, [r6, #0]
	ldr r5, [r6, #4]
	ldr r6, [r6, #8]
	ldr r7, [r6, #12]
	ldr r8, [r6, #16]
	ldr r9, [r6, #20]
	ldr r10, [r6, #24]
	ldr r11, [r6, #28]
	ldr r4, [r7, #0]
	ldr r5, [r7, #4]
	ldr r6, [r7, #8]
	ldr r7, [r7, #12]
	ldr r8, [r7, #16]
	ldr r9, [r7, #20]
	ldr r10, [r7, #24]
	ldr r11, [r7, #28]
	ldr r4, [r8, #0]
	ldr r5, [r8, #4]
	ldr r6, [r8, #8]
	ldr r7, [r8, #12]
	ldr r8, [r8, #16]
	ldr r9, [r8, #20]
	ldr r10, [r8, #24]
	ldr r11, [r8, #28]
	ldr r4, [r9, #0]
	ldr r5, [r9, #4]
	ldr r6, [r9, #8]
	ldr r7, [r9, #12]
	ldr r8, [r9, #16]
	ldr r9, [r9, #20]
	ldr r10, [r9, #24]
	ldr r11, [r9, #28]
	ldr r4, [r10, #0]
	ldr r5, [r10, #4]
	ldr r6, [r10, #8]
	ldr r7, [r10, #12]
	ldr r8, [r10, #16]
	ldr r9, [r10, #20]
	ldr r10, [r10, #24]
	ldr r11, [r10, #28]
	ldr r4, [r11, #0]
	ldr r5, [r11, #4]
	ldr r6, [r11, #8]
	ldr r7, [r11, #12]
	ldr r8, [r11, #16]
	ldr r9, [r11, #20]
	ldr r10, [r11, #24]
	ldr r11, [r11, #28]
	ldr r4, [r4, #0]
	ldr r5, [r4, #4]
	ldr r6, [r4, #8]
	ldr r7, [r4, #12]
	ldr r8, [r4, #16]
	ldr r9, [r4, #20]
	ldr r10, [r4, #24]
	ldr r11, [r4, #28]
	ldr r4, [r5, #0]
	ldr r5, [r5, #4]
	ldr r6, [r5, #8]
	ldr r7, [r5, #12]
	ldr r8, [r5, #16]
	ldr r9, [r5, #20]
	ldr r10, [r5, #24]
	ldr r11, [r5, #28]
	ldr r4, [r6, #0]
	ldr r5, [r6, #4]
	ldr r6, [r6, #8]
	ldr r7, [r6, #12]
	ldr r8, [r6, #16]
	ldr r9, [r6, #20]
	ldr r10, [r6, #24]
	ldr r11, [r6, #28]
	ldr r4, [r7, #0]
	ldr r5, [r7, #4]
	ldr r6, [r7, #8]
	ldr r7, [r7, #12]
	ldr r8, [r7, #16]
	ldr r9, [r7, #20]
	ldr r10, [r7, #24]
	ldr r11, [r7, #28]
	ldr r4, [r8, #0]
	ldr r5, [r8, #4]
	ldr r6, [r8, #8]
	ldr r7, [r8, #12]
	ldr r8, [r8, #16]
	ldr r9, [r8, #20]
	ldr r10, [r8, #24]
	ldr r11, [r8, #28]
	ldr r4, [r9, #0]
	ldr r5, [r9, #4]
	ldr r6, [r9, #8]
	ldr r7, [r9, #12]
	ldr r8, [r9, #16]
	ldr r9, [r9, #20]
	ldr r10, [r9, #24]
	ldr r11, [r9, #28]
	ldr r4, [r10, #0]
	ldr r5, [r10, #4]
	ldr r6, [r10, #8]
	ldr r7, [r10, #12]
	ldr r8, [r10, #16]
	ldr r9, [r10, #20]
	ldr r10, [r10, #24]
	ldr r11, [r10, #28]
	ldr r4, [r11, #0]
	ldr r5, [r11, #4]
	ldr r6, [r11, #8]
	ldr r7, [r11, #12]
	ldr r8, [r11, #16]
	ldr r9, [r11, #20]
	ldr r10, [r11, #24]
	ldr r11, [r11, #28]
	ldr r4, [r4, #0]
	ldr r5, [r4, #4]
	ldr r6, [r4, #8]
	ldr r7, [r4, #12]
	ldr r8, [r4, #16]
	ldr r9, [r4, #20]
	ldr r10, [r4, #24]
	ldr r11, [r4, #28]
	ldr r4, [r5, #0]
	ldr r5, [r5, #4]
	ldr r6, [r5, #8]
	ldr r7, [r5, #12]
	ldr r8, [r5, #16]
	ldr r9, [r5, #20]
	ldr r10, [r5, #24]
	ldr r11, [r5, #28]
	ldr r4, [r6, #0]
	ldr r5, [r6, #4]
	ldr r6, [r6, #8]
	ldr r7, [r6, #12]
	ldr r8, [r6, #16]
	ldr r9, [r6, #20]
	ldr r10, [r6, #24]
	ldr r11, [r6, #28]
	ldr r4, [r7, #0]
	ldr r5, [r7, #4]
	ldr r6, [r7, #8]
	ldr r7, [r7, #12]
	ldr r8, [r7, #16]
	ldr r9, [r7, #20]
	ldr r10, [r7, #24]
	ldr r11, [r7, #28]
	ldr r4, [r8, #0]
	ldr r5, [r8, #4]
	ldr r6, [r8, #8]
	ldr r7, [r8, #12]
	ldr r8, [r8, #16]
	ldr r9, [r8, #20]
	ldr r10, [r8, #24]
	ldr r11, [r8, #28]
	ldr r4, [r9, #0]
	ldr r5, [r9, #4]
	ldr r6, [r9, #8]
	ldr r7, [r9, #12]
	ldr r8, [r9, #16]
	ldr r9, [r9, #20]
	ldr r10, [r9, #24]
	ldr r11, [r9, #28]
	ldr r4, [r10, #0]
	ldr r5, [r10, #4]
	ldr r6, [r10, #8]
	ldr r7, [r10, #12]
	ldr r8, [r10, #16]
	ldr r9, [r10, #20]
	ldr r10, [r10, #24]
	ldr r11, [r10, #28]
	ldr r4, [r11, #0]
	ldr r5, [r11, #4]
	ldr r6, [r11, #8]
	ldr r7, [r11, #12]
	ldr r8, [r11, #16]
	ldr r9, [r11, #20]
	ldr r10, [r11, #24]
	ldr r11, [r11, #28]
	ldr r4, [r4, #0]
	ldr r5, [r4, #4]
	ldr r6, [r4, #8]
	ldr r7, [r4, #12]
	ldr r8, [r4, #16]
	ldr r9, [r4, #20]
	ldr r10, [r4, #24]
	ldr r11, [r4, #28]
	ldr r4, [r5, #0]
	ldr r5, [r5, #4]
	ldr r6, [r5, #8]
	ldr r7, [r5, #12]
	ldr r8, [r5, #16]
	ldr r9, [r5, #20]
	ldr r10, [r5, #24]
	ldr r11, [r5, #28]
	ldr r4, [r6, #0]
	ldr r5, [r6, #4]
	ldr r6, [r6, #8]
	ldr r7, [r6, #12]
	ldr r8, [r6, #16]
	ldr r9, [r6, #20]
	ldr r10, [r6, #24]
	ldr r11, [r6, #28]
	ldr r4, [r7, #0]
	ldr r5, [r7, #4]
	ldr r6, [r7, #8]
	ldr r7, [r7, #12]
	ldr r8, [r7, #16]
	ldr r9, [r7, #20]
	ldr r10, [r7, #24]
	ldr r11, [r7, #28]
	ldr r4, [r8, #0]
	ldr r5, [r8, #4]
	ldr r6, [r8, #8]
	ldr r7, [r8, #12]
	ldr r8, [r8, #16]
	ldr r9, [r8, #20]
	ldr r10, [r8, #24]
	ldr r11, [r8, #28]
	ldr r4, [r9, #0]
	ldr r5, [r9, #4]
	ldr r6, [r9, #8]
	ldr r7, [r9, #12]
	ldr r8, [r9, #16]
	ldr r9, [r9, #20]
	ldr r10, [r9, #24]
	ldr r11, [r9, #28]
	ldr r4, [r10, #0]
	ldr r5, [r10, #4]
	ldr r6, [r10, #8]
	ldr r7, [r10, #12]
	ldr r8, [r10, #16]
	ldr r9, [r10, #20]
	ldr r10, [r10, #24]
	ldr r11, [r10, #28]
	ldr r4, [r11, #0]
	ldr r5, [r11, #4]
	ldr r6, [r11, #8]
	ldr r7, [r11, #12]
	ldr r8, [r11, #16]
	ldr r9, [r11, #20]
	ldr r10, [r11, #24]
	ldr r11, [r11, #28]
	ldr r4, [r4, #0]
	ldr r5, [r4, #4]
	ldr r6, [r4, #8]
	ldr r7, [r4, #12]
	ldr r8, [r4, #16]
	ldr r9, [r4, #20]
	ldr r10, [r4, #24]
	ldr r11, [r4, #28]
	ldr r4, [r5, #0]
	ldr r5, [r5, #4]
	ldr r6, [r5, #8]
	ldr r7, [r5, #12]
	ldr r8, [r5, #16]
	ldr r9, [r5, #20]
	ldr r10, [r5, #24]
	ldr r11, [r5, #28]
	ldr r4, [r6, #0]
	ldr r5, [r6, #4]
	ldr r6, [r6, #8]
	ldr r7, [r6, #12]
	ldr r8, [r6, #16]
	ldr r9, [r6, #20]
	ldr r10, [r6, #24]
	ldr r11, [r6, #28]
	ldr r4, [r7, #0]
	ldr r5, [r7, #4]
	ldr r6, [r7, #8]
	ldr r7, [r7, #12]
	ldr r8, [r7, #16]
	ldr r9, [r7, #20]
	ldr r10, [r7, #24]
	ldr r11, [r7, #28]
	ldr r4, [r8, #0]
	ldr r5, [r8, #4]
	ldr r6, [r8, #8]
	ldr r7, [r8, #12]
	ldr r8, [r8, #16]
	ldr r9, [r8, #20]
	ldr r10, [r8, #24]
	ldr r11, [r8, #28]
	ldr r4, [r9, #0]
	ldr r5, [r9, #4]
	ldr r6, [r9, #8]
	ldr r7, [r9, #12]
	ldr r8, [r9, #16]
	ldr r9, [r9, #20]
	ldr r10, [r9, #24]
	ldr r11, [r9, #28]
	ldr r4, [r10, #0]
	ldr r5, [r10, #4]
	ldr r6, [r10, #8]
	ldr r7, [r10, #12]
	ldr r8, [r10, #16]
	ldr r9, [r10, #20]
	ldr r10, [r10, #24]
	ldr r11, [r10, #28]
	ldr r4, [r11, #0]
	ldr r5, [r11, #4]
	ldr r6, [r11, #8]
	ldr r7, [r11, #12]
	ldr r8, [r11, #16]
	ldr r9, [r11, #20]
	ldr r10, [r11, #24]
	ldr r11, [r11, #28]
	ldr r4, [r4, #0]
	ldr r5, [r4, #4]
	ldr r6, [r4, #8]
	ldr r7, [r4, #12]
	ldr r8, [r4, #16]
	ldr r9, [r4, #20]
	ldr r10, [r4, #24]
	ldr r11, [r4, #28]
	ldr r4, [r5, #0]
	ldr r5, [r5, #4]
	ldr r6, [r5, #8]
	ldr r7, [r5, #12]
	ldr r8, [r5, #16]
	ldr r9, [r5, #20]
	ldr r10, [r5, #24]
	ldr r11, [r5, #28]
	ldr r4, [r6, #0]
	ldr r5, [r6, #4]
	ldr r6, [r6, #8]
	ldr r7, [r6, #12]
	ldr r8, [r6, #16]
	ldr r9, [r6, #20]
	ldr r10, [r6, #24]
	ldr r11, [r6, #28]
	ldr r4, [r7, #0]
	ldr r5, [r7, #4]
	ldr r6, [r7, #8]
	ldr r7, [r7, #12]
	ldr r8, [r7, #16]
	ldr r9, [r7, #20]
	ldr r10, [r7, #24]
	ldr r11, [r7, #28]
	ldr r4, [r8, #0]
	ldr r5, [r8, #4]
	ldr r6, [r8, #8]
	ldr r7, [r8, #12]
	ldr r8, [r8, #16]
	ldr r9, [r8, #20]
	ldr r10, [r8, #24]
	ldr r11, [r8, #28]
	ldr r4, [r9, #0]
	ldr r5, [r9, #4]
	ldr r6, [r9, #8]
	ldr r7, [r9, #12]
	ldr r8, [r9, #16]
	ldr r9, [r9, #20]
	ldr r10, [r9, #24]
	ldr r11, [r9, #28]
	ldr r4, [r10, #0]
	ldr r5, [r10, #4]
	ldr r6, [r10, #8]
	ldr r7, [r10, #12]
	ldr r8, [r10, #16]
	ldr r9, [r10, #20]
	ldr r10, [r10, #24]
	ldr r11, [r10, #28]
	ldr r4, [r11, #0]
	ldr r5, [r11, #4]
	ldr r6, [r11, #8]
	ldr r7, [r11, #12]
	ldr r8, [r11, #16]
	ldr r9, [r11, #20]
	ldr r10, [r11, #24]
	ldr r11, [r11, #28]
	ldr r4, [r4, #0]
	ldr r5, [r4, #4]
	ldr r6, [r4, #8]
	ldr r7, [r4, #12]
	ldr r8, [r4, #16]
	ldr r9, [r4, #20]
	ldr r10, [r4, #24]
	ldr r11, [r4, #28]
	ldr r4, [r5, #0]
	ldr r5, [r5, #4]
	ldr r6, [r5, #8]
	ldr r7, [r5, #12]
	ldr r8, [r5, #16]
	ldr r9, [r5, #20]
	ldr r10, [r5, #24]
	ldr r11, [r5, #28]
	ldr r4, [r6, #0]
	ldr r5, [r6, #4]
	ldr r6, [r6, #8]
	ldr r7, [r6, #12]
	ldr r8, [r6, #16]
	ldr r9, [r6, #20]
	ldr r10, [r6, #24]
	ldr r11, [r6, #28]
	ldr r4, [r7, #0]
	ldr r5, [r7, #4]
	ldr r6, [r7, #8]
	ldr r7, [r7, #12]
	ldr r8, [r7, #16]
	ldr r9, [r7, #20]
	ldr r10, [r7, #24]
	ldr r11, [r7, #28]
	ldr r4, [r8, #0]
	ldr r5, [r8, #4]
	ldr r6, [r8, #8]
	ldr r7, [r8, #12]
	ldr r8, [r8, #16]
	ldr r9, [r8, #20]
	ldr r10, [r8, #24]
	ldr r11, [r8, #28]
	ldr r4, [r9, #0]
	ldr r5, [r9, #4]
	ldr r6, [r9, #8]
	ldr r7, [r9, #12]
	ldr r8, [r9, #16]
	ldr r9, [r9, #20]
	ldr r10, [r9, #24]
	ldr r11, [r9, #28]
	ldr r4, [r10, #0]
	ldr r5, [r10, #4]
	ldr r6, [r10, #8]
	ldr r7, [r10, #12]
	ldr r8, [r10, #16]
	ldr r9, [r10, #20]
	ldr r10, [r10, #24]
	ldr r11, [r10, #28]
	ldr r4, [r11, #0]
	ldr r5, [r11, #4]
	ldr r6, [r11, #8]
	ldr r7, [r11, #12]
	ldr r8, [r11, #16]
	ldr r9, [r11, #20]
	ldr r10, [r11, #24]
	ldr r11, [r11, #28]
	ldr r4, [r4, #0]
	ldr r5, [r4, #4]
	ldr r6, [r4, #8]
	ldr r7, [r4, #12]
	ldr r8, [r4, #16]
	ldr r9, [r4, #20]
	ldr r10, [r4, #24]
	ldr r11, [r4, #28]
	ldr r4, [r5, #0]
	ldr r5, [r5, #4]
	ldr r6, [r5, #8]
	ldr r7, [r5, #12]
	ldr r8, [r5, #16]
	ldr r9, [r5, #20]
	ldr r10, [r5, #24]
	ldr r11, [r5, #28]
	ldr r4, [r6, #0]
	ldr r5, [r6, #4]
	ldr r6, [r6, #8]
	ldr r7, [r6, #12]
	ldr r8, [r6, #16]
	ldr r9, [r6, #20]
	ldr r10, [r6, #24]
	ldr r11, [r6, #28]
	ldr r4, [r7, #0]
	ldr r5, [r7, #4]
	ldr r6, [r7, #8]
	ldr r7, [r7, #12]
	ldr r8, [r7, #16]
	ldr r9, [r7, #20]
	ldr r10, [r7, #24]
	ldr r11, [r7, #28]
	ldr r4, [r8, #0]
	ldr r5, [r8, #4]
	ldr r6, [r8, #8]
	ldr r7, [r8, #12]
	ldr r8, [r8, #16]
	ldr r9, [r8, #20]
	ldr r10, [r8, #24]
	ldr r11, [r8, #28]
	ldr r4, [r9, #0]
	ldr r5, [r9, #4]
	ldr r6, [r9, #8]
	ldr r7, [r9, #12]
	ldr r8, [r9, #16]
	ldr r9, [r9, #20]
	ldr r10, [r9, #24]
	ldr r11, [r9, #28]
	ldr r4, [r10, #0]
	ldr r5, [r10, #4]
	ldr r6, [r10, #8]
	ldr r7, [r10, #12]
	ldr r8, [r10, #16]
	ldr r9, [r10, #20]
	ldr r10, [r10, #24]
	ldr r11, [r10, #28]
	ldr r4, [r11, #0]
	ldr r5, [r11, #4]
	ldr r6, [r11, #8]
	ldr r7, [r11, #12]
	ldr r8, [r11, #16]
	ldr r9, [r11, #20]
	ldr r10, [r11, #24]
	ldr r11, [r11, #28]
	ldr r4, [r4, #0]
	ldr r5, [r4, #4]
	ldr r6, [r4, #8]
	ldr r7, [r4, #12]
	ldr r8, [r4, #16]
	ldr r9, [r4, #20]
	ldr r10, [r4, #24]
	ldr r11, [r4, #28]
	ldr r4, [r5, #0]
	ldr r5, [r5, #4]
	ldr r6, [r5, #8]
	ldr r7, [r5, #12]
	ldr r8, [r5, #16]
	ldr r9, [r5, #20]
	ldr r10, [r5, #24]
	ldr r11, [r5, #28]
	ldr r4, [r6, #0]
	ldr r5, [r6, #4]
	ldr r6, [r6, #8]
	ldr r7, [r6, #12]
	ldr r8, [r6, #16]
	ldr r9, [r6, #20]
	ldr r10, [r6, #24]
	ldr r11, [r6, #28]
	ldr r4, [r7, #0]
	ldr r5, [r7, #4]
	ldr r6, [r7, #8]
	ldr r7, [r7, #12]
	ldr r8, [r7, #16]
	ldr r9, [r7, #20]
	ldr r10, [r7, #24]
	ldr r11, [r7, #28]
	ldr r4, [r8, #0]
	ldr r5, [r8, #4]
	ldr r6, [r8, #8]
	ldr r7, [r8, #12]
	ldr r8, [r8, #16]
	ldr r9, [r8, #20]
	ldr r10, [r8, #24]
	ldr r11, [r8, #28]
	ldr r4, [r9, #0]
	ldr r5, [r9, #4]
	ldr r6, [r9, #8]
	ldr r7, [r9, #12]
	ldr r8, [r9, #16]
	ldr r9, [r9, #20]
	ldr r10, [r9, #24]
	ldr r11, [r9, #28]
	ldr r4, [r10, #0]
	ldr r5, [r10, #4]
	ldr r6, [r10, #8]
	ldr r7, [r10, #12]
	ldr r8, [r10, #16]
	ldr r9, [r10, #20]
	ldr r10, [r10, #24]
	ldr r11, [r10, #28]
	ldr r4, [r11, #0]
	ldr r5, [r11, #4]
	ldr r6, [r11, #8]
	ldr r7, [r11, #12]
	ldr r8, [r11, #16]
	ldr r9, [r11, #20]
	ldr r10, [r11, #24]
	ldr r11, [r11, #28]
	ldr r4, [r4, #0]
	ldr r5, [r4, #4]
	ldr r6, [r4, #8]
	ldr r7, [r4, #12]
	ldr r8, [r4, #16]
	ldr r9, [r4, #20]
	ldr r10, [r4, #24]
	ldr r11, [r4, #28]
	ldr r4, [r5, #0]
	ldr r5, [r5, #4]
	ldr r6, [r5, #8]
	ldr r7, [r5, #12]
	ldr r8, [r5, #16]
	ldr r9, [r5, #20]
	ldr r10, [r5, #24]
	ldr r11, [r5, #28]
	ldr r4, [r6, #0]
	ldr r5, [r6, #4]
	ldr r6, [r6, #8]
	ldr r7, [r6, #12]
	ldr r8, [r6, #16]
	ldr r9, [r6, #20]
	ldr r10, [r6, #24]
	ldr r11, [r6, #28]
	ldr r4, [r7, #0]
	ldr r5, [r7, #4]
	ldr r6, [r7, #8]
	ldr r7, [r7, #12]
	ldr r8, [r7, #16]
	ldr r9, [r7, #20]
	ldr r10, [r7, #24]
	ldr r11, [r7, #28]
	ldr r4, [r8, #0]
	ldr r5, [r8, #4]
	ldr r6, [r8, #8]
	ldr r7, [r8, #12]
	ldr r8, [r8, #16]
	ldr r9, [r8, #20]
	ldr r10, [r8, #24]
	ldr r11, [r8, #28]
	ldr r4, [r9, #0]
	ldr r5, [r9, #4]
	ldr r6, [r9, #8]
	ldr r7, [r9, #12]
	ldr r8, [r9, #16]
	ldr r9, [r9, #20]
	ldr r10, [r9, #24]
	ldr r11, [r9, #28]
	ldr r4, [r10, #0]
	ldr r5, [r10, #4]
	ldr r6, [r10, #8]
	ldr r7, [r10, #12]
	ldr r8, [r10, #16]
	ldr r9, [r10, #20]
	ldr r10, [r10, #24]
	ldr r11, [r10, #28]
	ldr r4, [r11, #0]
	ldr r5, [r11, #4]
	ldr r6, [r11, #8]
	ldr r7, [r11, #12]
	ldr r8, [r11, #16]
	ldr r9, [r11, #20]
	ldr r10, [r11, #24]
	ldr r11, [r11, #28]
	ldr r4, [r4, #0]
	ldr r5, [r4, #4]
	ldr r6, [r4, #8]
	ldr r7, [r4, #12]
	ldr r8, [r4, #16]
	ldr r9, [r4, #20]
	ldr r10, [r4, #24]
	ldr r11, [r4, #28]
	ldr r4, [r5, #0]
	ldr r5, [r5, #4]
	ldr r6, [r5, #8]
	ldr r7, [r5, #12]
	ldr r8, [r5, #16]
	ldr r9, [r5, #20]
	ldr r10, [r5, #24]
	ldr r11, [r5, #28]
	ldr r4, [r6, #0]
	ldr r5, [r6, #4]
	ldr r6, [r6, #8]
	ldr r7, [r6, #12]
	ldr r8, [r6, #16]
	ldr r9, [r6, #20]
	ldr r10, [r6, #24]
	ldr r11, [r6, #28]
	ldr r4, [r7, #0]
	ldr r5, [r7, #4]
	ldr r6, [r7, #8]
	ldr r7, [r7, #12]
	ldr r8, [r7, #16]
	ldr r9, [r7, #20]
	ldr r10, [r7, #24]
	ldr r11, [r7, #28]
	ldr r4, [r8, #0]
	ldr r5, [r8, #4]
	ldr r6, [r8, #8]
	ldr r7, [r8, #12]
	ldr r8, [r8, #16]
	ldr r9, [r8, #20]
	ldr r10, [r8, #24]
	ldr r11, [r8, #28]
	ldr r4, [r9, #0]
	ldr r5, [r9, #4]
	ldr r6, [r9, #8]
	ldr r7, [r9, #12]
	ldr r8, [r9, #16]
	ldr r9, [r9, #20]
	ldr r10, [r9, #24]
	ldr r11, [r9, #28]
	ldr r4, [r10, #0]
	ldr r5, [r10, #4]
	ldr r6, [r10, #8]
	ldr r7, [r10, #12]
	ldr r8, [r10, #16]
	ldr r9, [r10, #20]
	ldr r10, [r10, #24]
	ldr r11, [r10, #28]
	ldr r4, [r11, #0]
	ldr r5, [r11, #4]
	ldr r6, [r11, #8]
	ldr r7, [r11, #12]
	ldr r8, [r11, #16]
	ldr r9, [r11, #20]
	ldr r10, [r11, #24]
	ldr r11, [r11, #28]
	ldr r4, [r4, #0]
	ldr r5, [r4, #4]
	ldr r6, [r4, #8]
	ldr r7, [r4, #12]
	ldr r8, [r4, #16]
	ldr r9, [r4, #20]
	ldr r10, [r4, #24]
	ldr r11, [r4, #28]
	ldr r4, [r5, #0]
	ldr r5, [r5, #4]
	ldr r6, [r5, #8]
	ldr r7, [r5, #12]
	ldr r8, [r5, #16]
	ldr r9, [r5, #20]
	ldr r10, [r5, #24]
	ldr r11, [r5, #28]
	ldr r4, [r6, #0]
	ldr r5, [r6, #4]
	ldr r6, [r6, #8]
	ldr r7, [r6, #12]
	ldr r8, [r6, #16]
	ldr r9, [r6, #20]
	ldr r10, [r6, #24]
	ldr r11, [r6, #28]
	ldr r4, [r7, #0]
	ldr r5, [r7, #4]
	ldr r6, [r7, #8]
	ldr r7, [r7, #12]
	ldr r8, [r7, #16]
	ldr r9, [r7, #20]
	ldr r10, [r7, #24]
	ldr r11, [r7, #28]
	ldr r4, [r8, #0]
	ldr r5, [r8, #4]
	ldr r6, [r8, #8]
	ldr r7, [r8, #12]
	ldr r8, [r8, #16]
	ldr r9, [r8, #20]
	ldr r10, [r8, #24]
	ldr r11, [r8, #28]
	ldr r4, [r9, #0]
	ldr r5, [r9, #4]
	ldr r6, [r9, #8]
	ldr r7, [r9, #12]
	ldr r8, [r9, #16]
	ldr r9, [r9, #20]
	ldr r10, [r9, #24]
	ldr r11, [r9, #28]
	ldr r4, [r10, #0]
	ldr r5, [r10, #4]
	ldr r6, [r10, #8]
	ldr r7, [r10, #12]
	ldr r8, [r10, #16]
	ldr r9, [r10, #20]
	ldr r10, [r10, #24]
	ldr r11, [r10, #28]
	ldr r4, [r11, #0]
	ldr r5, [r11, #4]
	ldr r6, [r11, #8]
	ldr r7, [r11, #12]
	ldr r8, [r11, #16]
	ldr r9, [r11, #20]
	ldr r10, [r11, #24]
	ldr r11, [r11, #28]
	ldr r4, [r4, #0]
	ldr r5, [r4, #4]
	ldr r6, [r4, #8]
	ldr r7, [r4, #12]
	ldr r8, [r4, #16]
	ldr r9, [r4, #20]
	ldr r10, [r4, #24]
	ldr r11, [r4, #28]
	ldr r4, [r5, #0]
	ldr r5, [r5, #4]
	ldr r6, [r5, #8]
	ldr r7, [r5, #12]
	ldr r8, [r5, #16]
	ldr r9, [r5, #20]
	ldr r10, [r5, #24]
	ldr r11, [r5, #28]
	ldr r4, [r6, #0]
	ldr r5, [r6, #4]
	ldr r6, [r6, #8]
	ldr r7, [r6, #12]
	ldr r8, [r6, #16]
	ldr r9, [r6, #20]
	ldr r10, [r6, #24]
	ldr r11, [r6, #28]
	ldr r4, [r7, #0]
	ldr r5, [r7, #4]
	ldr r6, [r7, #8]
	ldr r7, [r7, #12]
	ldr r8, [r7, #16]
	ldr r9, [r7, #20]
	ldr r10, [r7, #24]
	ldr r11, [r7, #28]
	ldr r4, [r8, #0]
	ldr r5, [r8, #4]
	ldr r6, [r8, #8]
	ldr r7, [r8, #12]
	ldr r8, [r8, #16]
	ldr r9, [r8, #20]
	ldr r10, [r8, #24]
	ldr r11, [r8, #28]
	ldr r4, [r9, #0]
	ldr r5, [r9, #4]
	ldr r6, [r9, #8]
	ldr r7, [r9, #12]
	ldr r8, [r9, #16]
	ldr r9, [r9, #20]
	ldr r10, [r9, #24]
	ldr r11, [r9, #28]
	ldr r4, [r10, #0]
	ldr r5, [r10, #4]
	ldr r6, [r10, #8]
	ldr r7, [r10, #12]
	ldr r8, [r10, #16]
	ldr r9, [r10, #20]
	ldr r10, [r10, #24]
	ldr r11, [r10, #28]
	ldr r4, [r11, #0]
	ldr r5, [r11, #4]
	ldr r6, [r11, #8]
	ldr r7, [r11, #12]
	ldr r8, [r11, #16]
	ldr r9, [r11, #20]
	ldr r10, [r11, #24]
	ldr r11, [r11, #28]
	ldr r4, [r4, #0]
	ldr r5, [r4, #4]
	ldr r6, [r4, #8]
	ldr r7, [r4, #12]
	ldr r8, [r4, #16]
	ldr r9, [r4, #20]
	ldr r10, [r4, #24]
	ldr r11, [r4, #28]
	ldr r4, [r5, #0]
	ldr r5, [r5, #4]
	ldr r6, [r5, #8]
	ldr r7, [r5, #12]
	ldr r8, [r5, #16]
	ldr r9, [r5, #20]
	ldr r10, [r5, #24]
	ldr r11, [r5, #28]
	ldr r4, [r6, #0]
	ldr r5, [r6, #4]
	ldr r6, [r6, #8]
	ldr r7, [r6, #12]
	ldr r8, [r6, #16]
	ldr r9, [r6, #20]
	ldr r10, [r6, #24]
	ldr r11, [r6, #28]
	ldr r4, [r7, #0]
	ldr r5, [r7, #4]
	ldr r6, [r7, #8]
	ldr r7, [r7, #12]
	ldr r8, [r7, #16]
	ldr r9, [r7, #20]
	ldr r10, [r7, #24]
	ldr r11, [r7, #28]
	ldr r4, [r8, #0]
	ldr r5, [r8, #4]
	ldr r6, [r8, #8]
	ldr r7, [r8, #12]
	ldr r8, [r8, #16]
	ldr r9, [r8, #20]
	ldr r10, [r8, #24]
	ldr r11, [r8, #28]
	ldr r4, [r9, #0]
	ldr r5, [r9, #4]
	ldr r6, [r9, #8]
	ldr r7, [r9, #12]
	ldr r8, [r9, #16]
	ldr r9, [r9, #20]
	ldr r10, [r9, #24]
	ldr r11, [r9, #28]
	ldr r4, [r10, #0]
	ldr r5, [r10, #4]
	ldr r6, [r10, #8]
	ldr r7, [r10, #12]
	ldr r8, [r10, #16]
	ldr r9, [r10, #20]
	ldr r10, [r10, #24]
	ldr r11, [r10, #28]
	ldr r4, [r11, #0]
	ldr r5, [r11, #4]
	ldr r6, [r11, #8]
	ldr r7, [r11, #12]
	ldr r8, [r11, #16]
	ldr r9, [r11, #20]
	ldr r10, [r11, #24]
	ldr r11, [r11, #28]
	ldr r4, [r4, #0]
	ldr r5, [r4, #4]
	ldr r6, [r4, #8]
	ldr r7, [r4, #12]
	ldr r8, [r4, #16]
	ldr r9, [r4, #20]
	ldr r10, [r4, #24]
	ldr r11, [r4, #28]
	ldr r4, [r5, #0]
	ldr r5, [r5, #4]
	ldr r6, [r5, #8]
	ldr r7, [r5, #12]
	ldr r8, [r5, #16]
	ldr r9, [r5, #20]
	ldr r10, [r5, #24]
	ldr r11, [r5, #28]
	ldr r4, [r6, #0]
	ldr r5, [r6, #4]
	ldr r6, [r6, #8]
	ldr r7, [r6, #12]
	ldr r8, [r6, #16]
	ldr r9, [r6, #20]
	ldr r10, [r6, #24]
	ldr r11, [r6, #28]
	ldr r4, [r7, #0]
	ldr r5, [r7, #4]
	ldr r6, [r7, #8]
	ldr r7, [r7, #12]
	ldr r8, [r7, #16]
	ldr r9, [r7, #20]
	ldr r10, [r7, #24]
	ldr r11, [r7, #28]
	ldr r4, [r8, #0]
	ldr r5, [r8, #4]
	ldr r6, [r8, #8]
	ldr r7, [r8, #12]
	ldr r8, [r8, #16]
	ldr r9, [r8, #20]
	ldr r10, [r8, #24]
	ldr r11, [r8, #28]
	ldr r4, [r9, #0]
	ldr r5, [r9, #4]
	ldr r6, [r9, #8]
	ldr r7, [r9, #12]
	ldr r8, [r9, #16]
	ldr r9, [r9, #20]
	ldr r10, [r9, #24]
	ldr r11, [r9, #28]
	ldr r4, [r10, #0]
	ldr r5, [r10, #4]
	ldr r6, [r10, #8]
	ldr r7, [r10, #12]
	ldr r8, [r10, #16]
	ldr r9, [r10, #20]
	ldr r10, [r10, #24]
	ldr r11, [r10, #28]
	ldr r4, [r11, #0]
	ldr r5, [r11, #4]
	ldr r6, [r11, #8]
	ldr r7, [r11, #12]
	ldr r8, [r11, #16]
	ldr r9, [r11, #20]
	ldr r10, [r11, #24]
	ldr r11, [r11, #28]
	ldr r4, [r4, #0]
	ldr r5, [r4, #4]
	ldr r6, [r4, #8]
	ldr r7, [r4, #12]
	ldr r8, [r4, #16]
	ldr r9, [r4, #20]
	ldr r10, [r4, #24]
	ldr r11, [r4, #28]
	ldr r4, [r5, #0]
	ldr r5, [r5, #4]
	ldr r6, [r5, #8]
	ldr r7, [r5, #12]
	ldr r8, [r5, #16]
	ldr r9, [r5, #20]
	ldr r10, [r5, #24]
	ldr r11, [r5, #28]
	ldr r4, [r6, #0]
	ldr r5, [r6, #4]
	ldr r6, [r6, #8]
	ldr r7, [r6, #12]
	ldr r8, [r6, #16]
	ldr r9, [r6, #20]
	ldr r10, [r6, #24]
	ldr r11, [r6, #28]
	ldr r4, [r7, #0]
	ldr r5, [r7, #4]
	ldr r6, [r7, #8]
	ldr r7, [r7, #12]
	ldr r8, [r7, #16]
	ldr r9, [r7, #20]
	ldr r10, [r7, #24]
	ldr r11, [r7, #28]
	ldr r4, [r8, #0]
	ldr r5, [r8, #4]
	ldr r6, [r8, #8]
	ldr r7, [r8, #12]
	ldr r8, [r8, #16]
	ldr r9, [r8, #20]
	ldr r10, [r8, #24]
	ldr r11, [r8, #28]
	ldr r4, [r9, #0]
	ldr r5, [r9, #4]
	ldr r6, [r9, #8]
	ldr r7, [r9, #12]
	ldr r8, [r9, #16]
	ldr r9, [r9, #20]
	ldr r10, [r9, #24]
	ldr r11, [r9, #28]
	ldr r4, [r10, #0]
	ldr r5, [r10, #4]
	ldr r6, [r10, #8]
	ldr r7, [r10, #12]
	ldr r8, [r10, #16]
	ldr r9, [r10, #20]
	ldr r10, [r10, #24]
	ldr r11, [r10, #28]
	ldr r4, [r11, #0]
	ldr r5, [r11, #4]
	ldr r6, [r11, #8]
	ldr r7, [r11, #12]
	ldr r8, [r11, #16]
	ldr r9, [r11, #20]
	ldr r10, [r11, #24]
	ldr r11, [r11, #28]
	ldr r4, [r4, #0]
	ldr r5, [r4, #4]
	ldr r6, [r4, #8]
	ldr r7, [r4, #12]
	ldr r8, [r4, #16]
	ldr r9, [r4, #20]
	ldr r10, [r4, #24]
	ldr r11, [r4, #28]
	ldr r4, [r5, #0]
	ldr r5, [r5, #4]
	ldr r6, [r5, #8]
	ldr r7, [r5, #12]
	ldr r8, [r5, #16]
	ldr r9, [r5, #20]
	ldr r10, [r5, #24]
	ldr r11, [r5, #28]
	ldr r4, [r6, #0]
	ldr r5, [r6, #4]
	ldr r6, [r6, #8]
	ldr r7, [r6, #12]
	ldr r8, [r6, #16]
	ldr r9, [r6, #20]
	ldr r10, [r6, #24]
	ldr r11, [r6, #28]
	ldr r4, [r7, #0]
	ldr r5, [r7, #4]
	ldr r6, [r7, #8]
	ldr r7, [r7, #12]
	ldr r8, [r7, #16]
	ldr r9, [r7, #20]
	ldr r10, [r7, #24]
	ldr r11, [r7, #28]
	ldr r4, [r8, #0]
	ldr r5, [r8, #4]
	ldr r6, [r8, #8]
	ldr r7, [r8, #12]
	ldr r8, [r8, #16]
	ldr r9, [r8, #20]
	ldr r10, [r8, #24]
	ldr r11, [r8, #28]
	ldr r4, [r9, #0]
	ldr r5, [r9, #4]
	ldr r6, [r9, #8]
	ldr r