.section .text
	.align 4
	.global _func0
	.text
	.globl _func0
	.type _func0, @function
_func0:
	.pushval %r15
	.pushval %r14
	.pushval %r13
	.pushval %r12
	.pushval %rbx
	.pushval %rax
	.cfi_def_cfa_offset 16
	.cfi_offset %rbx, -48
	.cfi_offset %r12, -32
	.cfi_offset %r13, -24
	.cfi_offset %r14, -16
	.cfi_offset %r15, -8
	.cfi_offset %rsp, -16
	.cfi_def_cfa_register %rsp
	.cfi_adjust_cfa_offset 16
	.cfi_offset %rbp, -32
	.cfi_def_cfa_register %rbp
	.cfi_adjust_cfa_offset 32
	.cfi_offset %rsp, -48
	.cfi_adjust_cfa_offset 48
	.cfi_offset %rsp, -64
	.cfi_adjust_cfa_offset 64
	.cfi_offset %rsp, -80
	.cfi_adjust_cfa_offset 80
	.cfi_offset %rsp, -96
	.cfi_adjust_cfa_offset 96
	.cfi_offset %rsp, -112
	.cfi_adjust_cfa_offset 112
	.cfi_offset %rsp, -128
	.cfi_adjust_cfa_offset 128
	.cfi_offset %rsp, -144
	.cfi_adjust_cfa_offset 144
	.cfi_offset %rsp, -160
	.cfi_adjust_cfa_offset 160
	.cfi_offset %rsp, -176
	.cfi_adjust_cfa_offset 176
	.cfi_offset %rsp, -192
	.cfi_adjust_cfa_offset 192
	.cfi_offset %rsp, -208
	.cfi_adjust_cfa_offset 208
	.cfi_offset %rsp, -224
	.cfi_adjust_cfa_offset 224
	.cfi_offset %rsp, -240
	.cfi_adjust_cfa_offset 240
	.cfi_offset %rsp, -256
	.cfi_adjust_cfa_offset 256
	.cfi_offset %rsp, -272
	.cfi_adjust_cfa_offset 272
	.cfi_offset %rsp, -288
	.cfi_adjust_cfa_offset 288
	.cfi_offset %rsp, -304
	.cfi_adjust_cfa_offset 304
	.cfi_offset %rsp, -320
	.cfi_adjust_cfa_offset 320
	.cfi_offset %rsp, -336
	.cfi_adjust_cfa_offset 336
	.cfi_offset %rsp, -352
	.cfi_adjust_cfa_offset 352
	.cfi_offset %rsp, -368
	.cfi_adjust_cfa_offset 368
	.cfi_offset %rsp, -384
	.cfi_adjust_cfa_offset 384
	.cfi_offset %rsp, -400
	.cfi_adjust_cfa_offset 400
	.cfi_offset %rsp, -416
	.cfi_adjust_cfa_offset 416
	.cfi_offset %rsp, -432
	.cfi_adjust_cfa_offset 432
	.cfi_offset %rsp, -448
	.cfi_adjust_cfa_offset 448
	.cfi_offset %rsp, -464
	.cfi_adjust_cfa_offset 464
	.cfi_offset %rsp, -480
	.cfi_adjust_cfa_offset 480
	.cfi_offset %rsp, -496
	.cfi_adjust_cfa_offset 496
	.cfi_offset %rsp, -512
	.cfi_adjust_cfa_offset 512
	.cfi_offset %rsp, -528
	.cfi_adjust_cfa_offset 528
	.cfi_offset %rsp, -544
	.cfi_adjust_cfa_offset 544
	.cfi_offset %rsp, -560
	.cfi_adjust_cfa_offset 560
	.cfi_offset %rsp, -576
	.cfi_adjust_cfa_offset 576
	.cfi_offset %rsp, -592
	.cfi_adjust_cfa_offset 592
	.cfi_offset %rsp, -608
	.cfi_adjust_cfa_offset 608
	.cfi_offset %rsp, -624
	.cfi_adjust_cfa_offset 624
	.cfi_offset %rsp, -640
	.cfi_adjust_cfa_offset 640
	.cfi_offset %rsp, -656
	.cfi_adjust_cfa_offset 656
	.cfi_offset %rsp, -672
	.cfi_adjust_cfa_offset 672
	.cfi_offset %rsp, -688
	.cfi_adjust_cfa_offset 688
	.cfi_offset %rsp, -704
	.cfi_adjust_cfa_offset 704
	.cfi_offset %rsp, -720
	.cfi_adjust_cfa_offset 720
	.cfi_offset %rsp, -736
	.cfi_adjust_cfa_offset 736
	.cfi_offset %rsp, -752
	.cfi_adjust_cfa_offset 752
	.cfi_offset %rsp, -768
	.cfi_adjust_cfa_offset 768
	.cfi_offset %rsp, -784
	.cfi_adjust_cfa_offset 784
	.cfi_offset %rsp, -800
	.cfi_adjust_cfa_offset 800
	.cfi_offset %rsp, -816
	.cfi_adjust_cfa_offset 816
	.cfi_offset %rsp, -832
	.cfi_adjust_cfa_offset 832
	.cfi_offset %rsp, -848
	.cfi_adjust_cfa_offset 848
	.cfi_offset %rsp, -864
	.cfi_adjust_cfa_offset 864
	.cfi_offset %rsp, -880
	.cfi_adjust_cfa_offset 880
	.cfi_offset %rsp, -896
	.cfi_adjust_cfa_offset 896
	.cfi_offset %rsp, -912
	.cfi_adjust_cfa_offset 912
	.cfi_offset %rsp, -928
	.cfi_adjust_cfa_offset 928
	.cfi_offset %rsp, -944
	.cfi_adjust_cfa_offset 944
	.cfi_offset %rsp, -960
	.cfi_adjust_cfa_offset 960
	.cfi_offset %rsp, -976
	.cfi_adjust_cfa_offset 976
	.cfi_offset %rsp, -992
	.cfi_adjust_cfa_offset 992
	.cfi_offset %rsp, -1008
	.cfi_adjust_cfa_offset 1008
	.cfi_offset %rsp, -1024
	.cfi_adjust_cfa_offset 1024
	.cfi_offset %rsp, -1040
	.cfi_adjust_cfa_offset 1040
	.cfi_offset %rsp, -1056
	.cfi_adjust_cfa_offset 1056
	.cfi_offset %rsp, -1072
	.cfi_adjust_cfa_offset 1072
	.cfi_offset %rsp, -1088
	.cfi_adjust_cfa_offset 1088
	.cfi_offset %rsp, -1104
	.cfi_adjust_cfa_offset 1104
	.cfi_offset %rsp, -1120
	.cfi_adjust_cfa_offset 1120
	.cfi_offset %rsp, -1136
	.cfi_adjust_cfa_offset 1136
	.cfi_offset %rsp, -1152
	.cfi_adjust_cfa_offset 1152
	.cfi_offset %rsp, -1168
	.cfi_adjust_cfa_offset 1168
	.cfi_offset %rsp, -1184
	.cfi_adjust_cfa_offset 1184
	.cfi_offset %rsp, -1200
	.cfi_adjust_cfa_offset 1200
	.cfi_offset %rsp, -1216
	.cfi_adjust_cfa_offset 1216
	.cfi_offset %rsp, -1232
	.cfi_adjust_cfa_offset 1232
	.cfi_offset %rsp, -1248
	.cfi_adjust_cfa_offset 1248
	.cfi_offset %rsp, -1264
	.cfi_adjust_cfa_offset 1264
	.cfi_offset %rsp, -1280
	.cfi_adjust_cfa_offset 1280
	.cfi_offset %rsp, -1296
	.cfi_adjust_cfa_offset 1296
	.cfi_offset %rsp, -1312
	.cfi_adjust_cfa_offset 1312
	.cfi_offset %rsp, -1328
	.cfi_adjust_cfa_offset 1328
	.cfi_offset %rsp, -1344
	.cfi_adjust_cfa_offset 1344
	.cfi_offset %rsp, -1360
	.cfi_adjust_cfa_offset 1360
	.cfi_offset %rsp, -1376
	.cfi_adjust_cfa_offset 1376
	.cfi_offset %rsp, -1392
	.cfi_adjust_cfa_offset 1392
	.cfi_offset %rsp, -1408
	.cfi_adjust_cfa_offset 1408
	.cfi_offset %rsp, -1424
	.cfi_adjust_cfa_offset 1424
	.cfi_offset %rsp, -1440
	.cfi_adjust_cfa_offset 1440
	.cfi_offset %rsp, -1456
	.cfi_adjust_cfa_offset 1456
	.cfi_offset %rsp, -1472
	.cfi_adjust_cfa_offset 1472
	.cfi_offset %rsp, -1488
	.cfi_adjust_cfa_offset 1488
	.cfi_offset %rsp, -1504
	.cfi_adjust_cfa_offset 1504
	.cfi_offset %rsp, -1520
	.cfi_adjust_cfa_offset 1520
	.cfi_offset %rsp, -1536
	.cfi_adjust_cfa_offset 1536
	.cfi_offset %rsp, -1552
	.cfi_adjust_cfa_offset 1552
	.cfi_offset %rsp, -1568
	.cfi_adjust_cfa_offset 1568
	.cfi_offset %rsp, -1584
	.cfi_adjust_cfa_offset 1584
	.cfi_offset %rsp, -1600
	.cfi_adjust_cfa_offset 1600
	.cfi_offset %rsp, -1616
	.cfi_adjust_cfa_offset 1616
	.cfi_offset %rsp, -1632
	.cfi_adjust_cfa_offset 1632
	.cfi_offset %rsp, -1648
	.cfi_adjust_cfa_offset 1648
	.cfi_offset %rsp, -1664
	.cfi_adjust_cfa_offset 1664
	.cfi_offset %rsp, -1680
	.cfi_adjust_cfa_offset 1680
	.cfi_offset %rsp, -1696
	.cfi_adjust_cfa_offset 1696
	.cfi_offset %rsp, -1712
	.cfi_adjust_cfa_offset 1712
	.cfi_offset %rsp, -1728
	.cfi_adjust_cfa_offset 1728
	.cfi_offset %rsp, -1744
	.cfi_adjust_cfa_offset 1744
	.cfi_offset %rsp, -1760
	.cfi_adjust_cfa_offset 1760
	.cfi_offset %rsp, -1776
	.cfi_adjust_cfa_offset 1776
	.cfi_offset %rsp, -1792
	.cfi_adjust_cfa_offset 1792
	.cfi_offset %rsp, -1808
	.cfi_adjust_cfa_offset 1808
	.cfi_offset %rsp, -1824
	.cfi_adjust_cfa_offset 1824
	.cfi_offset %rsp, -1840
	.cfi_adjust_cfa_offset 1840
	.cfi_offset %rsp, -1856
	.cfi_adjust_cfa_offset 1856
	.cfi_offset %rsp, -1872
	.cfi_adjust_cfa_offset 1872
	.cfi_offset %rsp, -1888
	.cfi_adjust_cfa_offset 1888
	.cfi_offset %rsp, -1904
	.cfi_adjust_cfa_offset 1904
	.cfi_offset %rsp, -1920
	.cfi_adjust_cfa_offset 1920
	.cfi_offset %rsp, -1936
	.cfi_adjust_cfa_offset 1936
	.cfi_offset %rsp, -1952
	.cfi_adjust_cfa_offset 1952
	.cfi_offset %rsp, -1968
	.cfi_adjust_cfa_offset 1968
	.cfi_offset %rsp, -1984
	.cfi_adjust_cfa_offset 1984
	.cfi_offset %rsp, -2000
	.cfi_adjust_cfa_offset 2000
	.cfi_offset %rsp, -2016
	.cfi_adjust_cfa_offset 2016
	.cfi_offset %rsp, -2032
	.cfi_adjust_cfa_offset 2032
	.cfi_offset %rsp, -2048
	.cfi_adjust_cfa_offset 2048
	.cfi_offset %rsp, -2064
	.cfi_adjust_cfa_offset 2064
	.cfi_offset %rsp, -2080
	.cfi_adjust_cfa_offset 2080
	.cfi_offset %rsp, -2096
	.cfi_adjust_cfa_offset 2096
	.cfi_offset %rsp, -2112
	.cfi_adjust_cfa_offset 2112
	.cfi_offset %rsp, -2128
	.cfi_adjust_cfa_offset 2128
	.cfi_offset %rsp, -2144
	.cfi_adjust_cfa_offset 2144
	.cfi_offset %rsp, -2160
	.cfi_adjust_cfa_offset 2160
	.cfi_offset %rsp, -2176
	.cfi_adjust_cfa_offset 2176
	.cfi_offset %rsp, -2192
	.cfi_adjust_cfa_offset 2192
	.cfi_offset %rsp, -2208
	.cfi_adjust_cfa_offset 2208
	.cfi_offset %rsp, -2224
	.cfi_adjust_cfa_offset 2224
	.cfi_offset %rsp, -2240
	.cfi_adjust_cfa_offset 2240
	.cfi_offset %rsp, -2256
	.cfi_adjust_cfa_offset 2256
	.cfi_offset %rsp, -2272
	.cfi_adjust_cfa_offset 2272
	.cfi_offset %rsp, -2288
	.cfi_adjust_cfa_offset 2288
	.cfi_offset %rsp, -2304
	.cfi_adjust_cfa_offset 2304
	.cfi_offset %rsp, -2320
	.cfi_adjust_cfa_offset 2320
	.cfi_offset %rsp, -2336
	.cfi_adjust_cfa_offset 2336
	.cfi_offset %rsp, -2352
	.cfi_adjust_cfa_offset 2352
	.cfi_offset %rsp, -2368
	.cfi_adjust_cfa_offset 2368
	.cfi_offset %rsp, -2384
	.cfi_adjust_cfa_offset 2384
	.cfi_offset %rsp, -2400
	.cfi_adjust_cfa_offset 2400
	.cfi_offset %rsp, -2416
	.cfi_adjust_cfa_offset 2416
	.cfi_offset %rsp, -2432
	.cfi_adjust_cfa_offset 2432
	.cfi_offset %rsp, -2448
	.cfi_adjust_cfa_offset 2448
	.cfi_offset %rsp, -2464
	.cfi_adjust_cfa_offset 2464
	.cfi_offset %rsp, -2480
	.cfi_adjust_cfa_offset 2480
	.cfi_offset %rsp, -2496
	.cfi_adjust_cfa_offset 2496
	.cfi_offset %rsp, -2512
	.cfi_adjust_cfa_offset 2512
	.cfi_offset %rsp, -2528
	.cfi_adjust_cfa_offset 2528
	.cfi_offset %rsp, -2544
	.cfi_adjust_cfa_offset 2544
	.cfi_offset %rsp, -2560
	.cfi_adjust_cfa_offset 2560
	.cfi_offset %rsp, -2576
	.cfi_adjust_cfa_offset 2576
	.cfi_offset %rsp, -2592
	.cfi_adjust_cfa_offset 2592
	.cfi_offset %rsp, -2608
	.cfi_adjust_cfa_offset 2608
	.cfi_offset %rsp, -2624
	.cfi_adjust_cfa_offset 2624
	.cfi_offset %rsp, -2640
	.cfi_adjust_cfa_offset 2640
	.cfi_offset %rsp, -2656
	.cfi_adjust_cfa_offset 2656
	.cfi_offset %rsp, -2672
	.cfi_adjust_cfa_offset 2672
	.cfi_offset %rsp, -2688
	.cfi_adjust_cfa_offset 2688
	.cfi_offset %rsp, -2704
	.cfi_adjust_cfa_offset 2704
	.cfi_offset %rsp, -2720
	.cfi_adjust_cfa_offset 2720
	.cfi_offset %rsp, -2736
	.cfi_adjust_cfa_offset 2736
	.cfi_offset %rsp, -2752
	.cfi_adjust_cfa_offset 2752
	.cfi_offset %rsp, -2768
	.cfi_adjust_cfa_offset 2768
	.cfi_offset %rsp, -2784
	.cfi_adjust_cfa_offset 2784
	.cfi_offset %rsp, -2800
	.cfi_adjust_cfa_offset 2800
	.cfi_offset %rsp, -2816
	.cfi_adjust_cfa_offset 2816
	.cfi_offset %rsp, -2832
	.cfi_adjust_cfa_offset 2832
	.cfi_offset %rsp, -2848
	.cfi_adjust_cfa_offset 2848
	.cfi_offset %rsp, -2864
	.cfi_adjust_cfa_offset 2864
	.cfi_offset %rsp, -2880
	.cfi_adjust_cfa_offset 2880
	.cfi_offset %rsp, -2896
	.cfi_adjust_cfa_offset 2896
	.cfi_offset %rsp, -2912
	.cfi_adjust_cfa_offset 2912
	.cfi_offset %rsp, -2928
	.cfi_adjust_cfa_offset 2928
	.cfi_offset %rsp, -2944
	.cfi_adjust_cfa_offset 2944
	.cfi_offset %rsp, -2960
	.cfi_adjust_cfa_offset 2960
	.cfi_offset %rsp, -2976
	.cfi_adjust_cfa_offset 2976
	.cfi_offset %rsp, -2992
	.cfi_adjust_cfa_offset 2992
	.cfi_offset %rsp, -3008
	.cfi_adjust_cfa_offset 3008
	.cfi_offset %rsp, -3024
	.cfi_adjust_cfa_offset 3024
	.cfi_offset %rsp, -3040
	.cfi_adjust_cfa_offset 3040
	.cfi_offset %rsp, -3056
	.cfi_adjust_cfa_offset 3056
	.cfi_offset %rsp, -3072
	.cfi_adjust_cfa_offset 3072
	.cfi_offset %rsp, -3088
	.cfi_adjust_cfa_offset 3088
	.cfi_offset %rsp, -3104
	.cfi_adjust_cfa_offset 3104
	.cfi_offset %rsp, -3120
	.cfi_adjust_cfa_offset 3120
	.cfi_offset %rsp, -3136
	.cfi_adjust_cfa_offset 3136
	.cfi_offset %rsp, -3152
	.cfi_adjust_cfa_offset 3152
	.cfi_offset %rsp, -3168
	.cfi_adjust_cfa_offset 3168
	.cfi_offset %rsp, -3184
	.cfi_adjust_cfa_offset 3184
	.cfi_offset %rsp, -3200
	.cfi_adjust_cfa_offset 3200
	.cfi_offset %rsp, -3216
	.cfi_adjust_cfa_offset 3216
	.cfi_offset %rsp, -3232
	.cfi_adjust_cfa_offset 3232
	.cfi_offset %rsp, -3248
	.cfi_adjust_cfa_offset 3248
	.cfi_offset %rsp, -3264
	.cfi_adjust_cfa_offset 3264
	.cfi_offset %rsp, -3280
	.cfi_adjust_cfa_offset 3280
	.cfi_offset %rsp, -3296
	.cfi_adjust_cfa_offset 3296
	.cfi_offset %rsp, -3312
	.cfi_adjust_cfa_offset 3312
	.cfi_offset %rsp, -3328
	.cfi_adjust_cfa_offset 3328
	.cfi_offset %rsp, -3344
	.cfi_adjust_cfa_offset 3344
	.cfi_offset %rsp, -3360
	.cfi_adjust_cfa_offset 3360
	.cfi_offset %rsp, -3376
	.cfi_adjust_cfa_offset 3376
	.cfi_offset %rsp, -3392
	.cfi_adjust_cfa_offset 3392
	.cfi_offset %rsp, -3408
	.cfi_adjust_cfa_offset 3408
	.cfi_offset %rsp, -3424
	.cfi_adjust_cfa_offset 3424
	.cfi_offset %rsp, -3440
	.cfi_adjust_cfa_offset 3440
	.cfi_offset %rsp, -3456
	.cfi_adjust_cfa_offset 3456
	.cfi_offset %rsp, -3472
	.cfi_adjust_cfa_offset 3472
	.cfi_offset %rsp, -3488
	.cfi_adjust_cfa_offset 3488
	.cfi_offset %rsp, -3504
	.cfi_adjust_cfa_offset 3504
	.cfi_offset %rsp, -3520
	.cfi_adjust_cfa_offset 3520
	.cfi_offset %rsp, -3536
	.cfi_adjust_cfa_offset 3536
	.cfi_offset %rsp, -3552
	.cfi_adjust_cfa_offset 3552
	.cfi_offset %rsp, -3568
	.cfi_adjust_cfa_offset 3568
	.cfi_offset %rsp, -3584
	.cfi_adjust_cfa_offset 3584
	.cfi_offset %rsp, -3600
	.cfi_adjust_cfa_offset 3600
	.cfi_offset %rsp, -3616
	.cfi_adjust_cfa_offset 3616
	.cfi_offset %rsp, -3632
	.cfi_adjust_cfa_offset 3632
	.cfi_offset %rsp, -3648
	.cfi_adjust_cfa_offset 3648
	.cfi_offset %rsp, -3664
	.cfi_adjust_cfa_offset 3664
	.cfi_offset %rsp, -3680
	.cfi_adjust_cfa_offset 3680
	.cfi_offset %rsp, -3696
	.cfi_adjust_cfa_offset 3696
	.cfi_offset %rsp, -3712
	.cfi_adjust_cfa_offset 3712
	.cfi_offset %rsp, -3728
	.cfi_adjust_cfa_offset 3728
	.cfi_offset %rsp, -3744
	.cfi_adjust_cfa_offset 3744
	.cfi_offset %rsp, -3760
	.cfi_adjust_cfa_offset 3760
	.cfi_offset %rsp, -3776
	.cfi_adjust_cfa_offset 3776
	.cfi_offset %rsp, -3792
	.cfi_adjust_cfa_offset 3792
	.cfi_offset %rsp, -3808
	.cfi_adjust_cfa_offset 3808
	.cfi_offset %rsp, -3824
	.cfi_adjust_cfa_offset 3824
	.cfi_offset %rsp, -3840
	.cfi_adjust_cfa_offset 3840
	.cfi_offset %rsp, -3856
	.cfi_adjust_cfa_offset 3856
	.cfi_offset %rsp, -3872
	.cfi_adjust_cfa_offset 3872
	.cfi_offset %rsp, -3888
	.cfi_adjust_cfa_offset 3888
	.cfi_offset %rsp, -3904
	.cfi_adjust_cfa_offset 3904
	.cfi_offset %rsp, -3920
	.cfi_adjust_cfa_offset 3920
	.cfi_offset %rsp, -3936
	.cfi_adjust_cfa_offset 3936
	.cfi_offset %rsp, -3952
	.cfi_adjust_cfa_offset 3952
	.cfi_offset %rsp, -3968
	.cfi_adjust_cfa_offset 3968
	.cfi_offset %rsp, -3984
	.cfi_adjust_cfa_offset 3984
	.cfi_offset %rsp, -4000
	.cfi_adjust_cfa_offset 4000
	.cfi_offset %rsp, -4016
	.cfi_adjust_cfa_offset 4016
	.cfi_offset %rsp, -4032
	.cfi_adjust_cfa_offset 4032
	.cfi_offset %rsp, -4048
	.cfi_adjust_cfa_offset 4048
	.cfi_offset %rsp, -4064
	.cfi_adjust_cfa_offset 4064
	.cfi_offset %rsp, -4080
	.cfi_adjust_cfa_offset 4080
	.cfi_offset %rsp, -4096
	.cfi_adjust_cfa_offset 4096
	.cfi_offset %rsp, -4112
	.cfi_adjust_cfa_offset 4112
	.cfi_offset %rsp, -4128
	.cfi_adjust_cfa_offset 4128
	.cfi_offset %rsp, -4144
	.cfi_adjust_cfa_offset 4144
	.cfi_offset %rsp, -4160
	.cfi_adjust_cfa_offset 4160
	.cfi_offset %rsp, -4176
	.cfi_adjust_cfa_offset 4176
	.cfi_offset %rsp, -4192
	.cfi_adjust_cfa_offset 4192
	.cfi_offset %rsp, -4208
	.cfi_adjust_cfa_offset 4208
	.cfi_offset %rsp, -4224
	.cfi_adjust_cfa_offset 4224
	.cfi_offset %rsp, -4240
	.cfi_adjust_cfa_offset 4240
	.cfi_offset %rsp, -4256
	.cfi_adjust_cfa_offset 4256
	.cfi_offset %rsp, -4272
	.cfi_adjust_cfa_offset 4272
	.cfi_offset %rsp, -4288
	.cfi_adjust_cfa_offset 4288
	.cfi_offset %rsp, -4304
	.cfi_adjust_cfa_offset 4304
	.cfi_offset %rsp, -4320
	.cfi_adjust_cfa_offset 4320
	.cfi_offset %rsp, -4336
	.cfi_adjust_cfa_offset 4336
	.cfi_offset %rsp, -4352
	.cfi_adjust_cfa_offset 4352
	.cfi_offset %rsp, -4368
	.cfi_adjust_cfa_offset 4368
	.cfi_offset %rsp, -4384
	.cfi_adjust_cfa_offset 4384
	.cfi_offset %rsp, -4400
	.cfi_adjust_cfa_offset 4400
	.cfi_offset %rsp, -4416
	.cfi_adjust_cfa_offset 4416
	.cfi_offset %rsp, -4432
	.cfi_adjust_cfa_offset 4432
	.cfi_offset %rsp, -4448
	.cfi_adjust_cfa_offset 4448
	.cfi_offset %rsp, -4464
	.cfi_adjust_cfa_offset 4464
	.cfi_offset %rsp, -4480
	.cfi_adjust_cfa_offset 4480
	.cfi_offset %rsp, -4496
	.cfi_adjust_cfa_offset 4496
	.cfi_offset %rsp, -4512
	.cfi_adjust_cfa_offset 4512
	.cfi_offset %rsp, -4528
	.cfi_adjust_cfa_offset 4528
	.cfi_offset %rsp, -4544
	.cfi_adjust_cfa_offset 4544
	.cfi_offset %rsp, -4560
	.cfi_adjust_cfa_offset 4560
	.cfi_offset %rsp, -4576
	.cfi_adjust_cfa_offset 4576
	.cfi_offset %rsp, -4592
	.cfi_adjust_cfa_offset 4592
	.cfi_offset %rsp, -4608
	.cfi_adjust_cfa_offset 4608
	.cfi_offset %rsp, -4624
	.cfi_adjust_cfa_offset 4624
	.cfi_offset %rsp, -4640
	.cfi_adjust_cfa_offset 4640
	.cfi_offset %rsp, -4656
	.cfi_adjust_cfa_offset 4656
	.cfi_offset %rsp, -4672
	.cfi_adjust_cfa_offset 4672
	.cfi_offset %rsp, -4688
	.cfi_adjust_cfa_offset 4688
	.cfi_offset %rsp, -4704
	.cfi_adjust_cfa_offset 4704
	.cfi_offset %rsp, -4720
	.cfi_adjust_cfa_offset 4720
	.cfi_offset %rsp, -4736
	.cfi_adjust_cfa_offset 4736
	.cfi_offset %rsp, -4752
	.cfi_adjust_cfa_offset 4752
	.cfi_offset %rsp, -4768
	.cfi_adjust_cfa_offset 4768
	.cfi_offset %rsp, -4784
	.cfi_adjust_cfa_offset 4784
	.cfi_offset %rsp, -4800
	.cfi_adjust_cfa_offset 4800
	.cfi_offset %rsp, -4816
	.cfi_adjust_cfa_offset 4816
	.cfi_offset %rsp, -4832
	.cfi_adjust_cfa_offset 4832
	.cfi_offset %rsp, -4848
	.cfi_adjust_cfa_offset 4848
	.cfi_offset %rsp, -4864
	.cfi_adjust_cfa_offset 4864
	.cfi_offset %rsp, -4880
	.cfi_adjust_cfa_offset 4880
	.cfi_offset %rsp, -4896
	.cfi_adjust_cfa_offset 4896
	.cfi_offset %rsp, -4912
	.cfi_adjust_cfa_offset 4912
	.cfi_offset %rsp, -4928
	.cfi_adjust_cfa_offset 4928
	.cfi_offset %rsp, -4944
	.cfi_adjust_cfa_offset 4944
	.cfi_offset %rsp, -4960
	.cfi_adjust_cfa_offset 4960
	.cfi_offset %rsp, -4976
	.cfi_adjust_cfa_offset 4976
	.cfi_offset %rsp, -4992
	.cfi_adjust_cfa_offset 4992
	.cfi_offset %rsp, -5008
	.cfi_adjust_cfa_offset 5008
	.cfi_offset %rsp, -5024
	.cfi_adjust_cfa_offset 5024
	.cfi_offset %rsp, -5040
	.cfi_adjust_cfa_offset 5040
	.cfi_offset %rsp, -5056
	.cfi_adjust_cfa_offset 5056
	.cfi_offset %rsp, -5072
	.cfi_adjust_cfa_offset 5072
	.cfi_offset %rsp, -5088
	.cfi_adjust_cfa_offset 5088
	.cfi_offset %rsp, -5104
	.cfi_adjust_cfa_offset 5104
	.cfi_offset %rsp, -5120
	.cfi_adjust_cfa_offset 5120
	.cfi_offset %rsp, -5136
	.cfi_adjust_cfa_offset 5136
	.cfi_offset %rsp, -5152
	.cfi_adjust_cfa_offset 5152
	.cfi_offset %rsp, -5168
	.cfi_adjust_cfa_offset 5168
	.cfi_offset %rsp, -5184
	.cfi_adjust_cfa_offset 5184
	.cfi_offset %rsp, -5200
	.cfi_adjust_cfa_offset 5200
	.cfi_offset %rsp, -5216
	.cfi_adjust_cfa_offset 5216
	.cfi_offset %rsp, -5232
	.cfi_adjust_cfa_offset 5232
	.cfi_offset %rsp, -5248
	.cfi_adjust_cfa_offset 5248
	.cfi_offset %rsp, -5264
	.cfi_adjust_cfa_offset 5264
	.cfi_offset %rsp, -5280
	.cfi_adjust_cfa_offset 5280
	.cfi_offset %rsp, -5296
	.cfi_adjust_cfa_offset 5296
	.cfi_offset %rsp, -5312
	.cfi_adjust_cfa_offset 5312
	.cfi_offset %rsp, -5328
	.cfi_adjust_cfa_offset 5328
	.cfi_offset %rsp, -5344
	.cfi_adjust_cfa_offset 5344
	.cfi_offset %rsp, -5360
	.cfi_adjust_cfa_offset 5360
	.cfi_offset %rsp, -5376
	.cfi_adjust_cfa_offset 5376
	.cfi_offset %rsp, -5392
	.cfi_adjust_cfa_offset 5392
	.cfi_offset %rsp, -5408
	.cfi_adjust_cfa_offset 5408
	.cfi_offset %rsp, -5424
	.cfi_adjust_cfa_offset 5424
	.cfi_offset %rsp, -5440
	.cfi_adjust_cfa_offset 5440
	.cfi_offset %rsp, -5456
	.cfi_adjust_cfa_offset 5456
	.cfi_offset %rsp, -5472
	.cfi_adjust_cfa_offset 5472
	.cfi_offset %rsp, -5488
	.cfi_adjust_cfa_offset 5488
	.cfi_offset %rsp, -5504
	.cfi_adjust_cfa_offset 5504
	.cfi_offset %rsp, -5520
	.cfi_adjust_cfa_offset 5520
	.cfi_offset %rsp, -5536
	.cfi_adjust_cfa_offset 5536
	.cfi_offset %rsp, -5552
	.cfi_adjust_cfa_offset 5552
	.cfi_offset %rsp, -5568
	.cfi_adjust_cfa_offset 5568
	.cfi_offset %rsp, -5584
	.cfi_adjust_cfa_offset 5584
	.cfi_offset %rsp, -5600
	.cfi_adjust_cfa_offset 5600
	.cfi_offset %rsp, -5616
	.cfi_adjust_cfa_offset 5616
	.cfi_offset %rsp, -5632
	.cfi_adjust_cfa_offset 5632
	.cfi_offset %rsp, -5648
	.cfi_adjust_cfa_offset 5648
	.cfi_offset %rsp, -5664
	.cfi_adjust_cfa_offset 5664
	.cfi_offset %rsp, -5680
	.cfi_adjust_cfa_offset 5680
	.cfi_offset %rsp, -5696
	.cfi_adjust_cfa_offset 5696
	.cfi_offset %rsp, -5712
	.cfi_adjust_cfa_offset 5712
	.cfi_offset %rsp, -5728
	.cfi_adjust_cfa_offset 5728
	.cfi_offset %rsp, -5744
	.cfi_adjust_cfa_offset 5744
	.cfi_offset %rsp, -5760
	.cfi_adjust_cfa_offset 5760
	.cfi_offset %rsp, -5776
	.cfi_adjust_cfa_offset 5776
	.cfi_offset %rsp, -5792
	.cfi_adjust_cfa_offset 5792
	.cfi_offset %rsp, -5808
	.cfi_adjust_cfa_offset 5808
	.cfi_offset %rsp, -5824
	.cfi_adjust_cfa_offset 5824
	.cfi_offset %rsp, -5840
	.cfi_adjust_cfa_offset 5840
	.cfi_offset %rsp, -5856
	.cfi_adjust_cfa_offset 5856
	.cfi_offset %rsp, -5872
	.cfi_adjust_cfa_offset 5872
	.cfi_offset %rsp, -5888
	.cfi_adjust_cfa_offset 5888
	.cfi_offset %rsp, -5904
	.cfi_adjust_cfa_offset 5904
	.cfi_offset %rsp, -5920
	.cfi_adjust_cfa_offset 5920
	.cfi_offset %rsp, -5936
	.cfi_adjust_cfa_offset 5936
	.cfi_offset %rsp, -5952
	.cfi_adjust_cfa_offset 5952
	.cfi_offset %rsp, -5968
	.cfi_adjust_cfa_offset 5968
	.cfi_offset %rsp, -5984
	.cfi_adjust_cfa_offset 5984
	.cfi_offset %rsp, -6000
	.cfi_adjust_cfa_offset 6000
	.cfi_offset %rsp, -6016
	.cfi_adjust_cfa_offset 6016
	.cfi_offset %rsp, -6032
	.cfi_adjust_cfa_offset 6032
	.cfi_offset %rsp, -6048
	.cfi_adjust_cfa_offset 6048
	.cfi_offset %rsp, -6064
	.cfi_adjust_cfa_offset 6064
	.cfi_offset %rsp, -6080
	.cfi_adjust_cfa_offset 6080
	.cfi_offset %rsp, -6096
	.cfi_adjust_cfa_offset 6096
	.cfi_offset %rsp, -6112
	.cfi_adjust_cfa_offset 6112
	.cfi_offset %rsp, -6128
	.cfi_adjust_cfa_offset 6128
	.cfi_offset %rsp, -6144
	.cfi_adjust_cfa_offset 6144
	.cfi_offset %rsp, -6160
	.cfi_adjust_cfa_offset 6160
	.cfi_offset %rsp, -6176
	.cfi_adjust_cfa_offset 6176
	.cfi_offset %rsp, -6192
	.cfi_adjust_cfa_offset 6192
	.cfi_offset %rsp, -6208
	.cfi_adjust_cfa_offset 6208
	.cfi_offset %rsp, -6224
	.cfi_adjust_cfa_offset 6224
	.cfi_offset %rsp, -6240
	.cfi_adjust_cfa_offset 6240
	.cfi_offset %rsp, -6256
	.cfi_adjust_cfa_offset 6256
	.cfi_offset %rsp, -6272
	.cfi_adjust_cfa_offset 6272
	.cfi_offset %rsp, -6288
	.cfi_adjust_cfa_offset 6288
	.cfi_offset %rsp, -6304
	.cfi_adjust_cfa_offset 6304
	.cfi_offset %rsp, -6320
	.cfi_adjust_cfa_offset 6320
	.cfi_offset %rsp, -6336
	.cfi_adjust_cfa_offset 6336
	.cfi_offset %rsp, -6352
	.cfi_adjust_cfa_offset 6352
	.cfi_offset %rsp, -6368
	.cfi_adjust_cfa_offset 6368
	.cfi_offset %rsp, -6384
	.cfi_adjust_cfa_offset 6384
	.cfi_offset %rsp, -6400
	.cfi_adjust_cfa_offset 6400
	.cfi_offset %rsp, -6416
	.cfi_adjust_cfa_offset 6416
	.cfi_offset %rsp, -6432
	.cfi_adjust_cfa_offset 6432
	.cfi_offset %rsp, -6448
	.cfi_adjust_cfa_offset 6448
	.cfi_offset %rsp, -6464
	.cfi_adjust_cfa_offset 6464
	.cfi_offset %rsp, -6480
	.cfi_adjust_cfa_offset 6480
	.cfi_offset %rsp, -6496
	.cfi_adjust_cfa_offset 6496
	.cfi_offset %rsp, -6512
	.cfi_adjust_cfa_offset 6512
	.cfi_offset %rsp, -6528
	.cfi_adjust_cfa_offset 6528
	.cfi_offset %rsp, -6544
	.cfi_adjust_cfa_offset 6544
	.cfi_offset %rsp, -6560
	.cfi_adjust_cfa_offset 6560
	.cfi_offset %rsp, -6576
	.cfi_adjust_cfa_offset 6576
	.cfi_offset %rsp, -6592
	.cfi_adjust_cfa_offset 6592
	.cfi_offset %rsp, -6608
	.cfi_adjust_cfa_offset 6608
	.cfi_offset %rsp, -6624
	.cfi_adjust_cfa_offset 6624
	.cfi_offset %rsp, -6640
	.cfi_adjust_cfa_offset 6640
	.cfi_offset %rsp, -6656
	.cfi_adjust_cfa_offset 6656
	.cfi_offset %rsp, -6672
	.cfi_adjust_cfa_offset 6672
	.cfi_offset %rsp, -6688
	.cfi_adjust_cfa_offset 6688
	.cfi_offset %rsp, -6704
	.cfi_adjust_cfa_offset 6704
	.cfi_offset %rsp, -6720
	.cfi_adjust_cfa_offset 6720
	.cfi_offset %rsp, -6736
	.cfi_adjust_cfa_offset 6736
	.cfi_offset %rsp, -6752
	.cfi_adjust_cfa_offset 6752
	.cfi_offset %rsp, -6768
	.cfi_adjust_cfa_offset 6768
	.cfi_offset %rsp, -6784
	.cfi_adjust_cfa_offset 6784
	.cfi_offset %rsp, -6800
	.cfi_adjust_cfa_offset 6800
	.cfi_offset %rsp, -6816
	.cfi_adjust_cfa_offset 6816
	.cfi_offset %rsp, -6832
	.cfi_adjust_cfa_offset 6832
	.cfi_offset %rsp, -6848
	.cfi_adjust_cfa_offset 6848
	.cfi_offset %rsp, -6864
	.cfi_adjust_cfa_offset 6864
	.cfi_offset %rsp, -6880
	.cfi_adjust_cfa_offset 6880
	.cfi_offset %rsp, -6896
	.cfi_adjust_cfa_offset 6896
	.cfi_offset %rsp, -6912
	.cfi_adjust_cfa_offset 6912
	.cfi_offset %rsp, -6928
	.cfi_adjust_cfa_offset 6928
	.cfi_offset %rsp, -6944
	.cfi_adjust_cfa_offset 6944
	.cfi_offset %rsp, -6960
	.cfi_adjust_cfa_offset 6960
	.cfi_offset %rsp, -6976
	.cfi_adjust_cfa_offset 6976
	.cfi_offset %rsp, -6992
	.cfi_adjust_cfa_offset 6992
	.cfi_offset %rsp, -7008
	.cfi_adjust_cfa_offset 7008
	.cfi_offset %rsp, -7024
	.cfi_adjust_cfa_offset 7024
	.cfi_offset %rsp, -7040
	.cfi_adjust_cfa_offset 7040
	.cfi_offset %rsp, -7056
	.cfi_adjust_cfa_offset 7056
	.cfi_offset %rsp, -7072
	.cfi_adjust_cfa_offset 7072
	.cfi_offset %rsp, -7088
	.cfi_adjust_cfa_offset 7088
	.cfi_offset %rsp, -7104
	.cfi_adjust_cfa_offset 7104
	.cfi_offset %rsp, -7120
	.cfi_adjust_cfa_offset 7120
	.cfi_offset %rsp, -7136
	.cfi_adjust_cfa_offset 7136
	.cfi_offset %rsp, -7152
	.cfi_adjust_cfa_offset 7152
	.cfi_offset %rsp, -7168
	.cfi_adjust_cfa_offset 7168
	.cfi_offset %rsp, -7184
	.cfi_adjust_cfa_offset 7184
	.cfi_offset %rsp, -7200
	.cfi_adjust_cfa_offset 7200
	.cfi_offset %rsp, -7216
	.cfi_adjust_cfa_offset 7216
	.cfi_offset %rsp, -7232
	.cfi_adjust_cfa_offset 7232
	.cfi_offset %rsp, -7248
	.cfi_adjust_cfa_offset 7248
	.cfi_offset %rsp, -7264
	.cfi_adjust_cfa_offset 7264
	.cfi_offset %rsp, -7280
	.cfi_adjust_cfa_offset 7280
	.cfi_offset %rsp, -7296
	.cfi_adjust_cfa_offset 7296
	.cfi_offset %rsp, -7312
	.cfi_adjust_cfa_offset 7312
	.cfi_offset %rsp, -7328
	.cfi_adjust_cfa_offset 7328
	.cfi_offset %rsp, -7344
	.cfi_adjust_cfa_offset 7344
	.cfi_offset %rsp, -7360
	.cfi_adjust_cfa_offset 7360
	.cfi_offset %rsp, -7376
	.cfi_adjust_cfa_offset 7376
	.cfi_offset %rsp, -7392
	.cfi_adjust_cfa_offset 7392
	.cfi_offset %rsp, -7408
	.cfi_adjust_cfa_offset 7408
	.cfi_offset %rsp, -7424
	.cfi_adjust_cfa_offset 7424
	.cfi_offset %rsp, -7440
	.cfi_adjust_cfa_offset 7440
	.cfi_offset %rsp, -7456
	.cfi_adjust_cfa_offset 7456
	.cfi_offset %rsp, -7472
	.cfi_adjust_cfa_offset 7472
	.cfi_offset %rsp, -7488
	.cfi_adjust_cfa_offset 7488
	.cfi_offset %rsp, -7504
	.cfi_adjust_cfa_offset 7504
	.cfi_offset %rsp, -7520
	.cfi_adjust_cfa_offset 7520
	.cfi_offset %rsp, -7536
	.cfi_adjust_cfa_offset 7536
	.cfi_offset %rsp, -7552
	.cfi_adjust_cfa_offset 7552
	.cfi_offset %rsp, -7568
	.cfi_adjust_cfa_offset 7568
	.cfi_offset %rsp, -7584
	.cfi_adjust_cfa_offset 7584
	.cfi_offset %rsp, -7600
	.cfi_adjust_cfa_offset 7600
	.cfi_offset %rsp, -7616
	.cfi_adjust_cfa_offset 7616
	.cfi_offset %rsp, -7632
	.cfi_adjust_cfa_offset 7632
	.cfi_offset %rsp, -7648
	.cfi_adjust_cfa_offset 7648
	.cfi_offset %rsp, -7664
	.cfi_adjust_cfa_offset 7664
	.cfi_offset %rsp, -7680
	.cfi_adjust_cfa_offset 7680
	.cfi_offset %rsp, -7696
	.cfi_adjust_cfa_offset 7696
	.cfi_offset %rsp, -7712
	.cfi_adjust_cfa_offset 7712
	.cfi_offset %rsp, -7728
	.cfi_adjust_cfa_offset 7728
	.cfi_offset %rsp, -7744
	.cfi_adjust_cfa_offset 7744
	.cfi_offset %rsp, -7760
	.cfi_adjust_cfa_offset 7760
	.cfi_offset %rsp, -7776
	.cfi_adjust_cfa_offset 7776
	.cfi_offset %rsp, -7792
	.cfi_adjust_cfa_offset 7792
	.cfi_offset %rsp, -7808
	.cfi_adjust_cfa_offset 7808
	.cfi_offset %rsp, -7824
	.cfi_adjust_cfa_offset 7824
	.cfi_offset %rsp, -7840
	.cfi_adjust_cfa_offset 7840
	.cfi_offset %rsp, -7856
	.cfi_adjust_cfa_offset 7856
	.cfi_offset %rsp, -7872
	.cfi_adjust_cfa_offset 7872
	.cfi_offset %rsp, -7888
	.cfi_adjust_cfa_offset 7888
	.cfi_offset %rsp, -7904
	.cfi_adjust_cfa_offset 7904
	.cfi_offset %rsp, -7920
	.cfi_adjust_cfa_offset 7920
	.cfi_offset %rsp, -7936
	.cfi_adjust_cfa_offset 7936
	.cfi_offset %rsp, -7952
	.cfi_adjust_cfa_offset 7952
	.cfi_offset %rsp, -7968
	.cfi_adjust_cfa_offset 7968
	.cfi_offset %rsp, -7984
	.cfi_adjust_cfa_offset 7984
	.cfi_offset %rsp, -8000
	.cfi_adjust_cfa_offset 8000
	.cfi_offset %rsp, -8016
	.cfi_adjust_cfa_offset 8016
	.cfi_offset %rsp, -8032
	.cfi_adjust_cfa_offset 8032
	.cfi_offset %rsp, -8048
	.cfi_adjust_cfa_offset 8048
	.cfi_offset %rsp, -8064
	.cfi_adjust_cfa_offset 8064
	.cfi_offset %rsp, -8080
	.cfi_adjust_cfa_offset 8080
	.cfi_offset %rsp, -8096
	.cfi_adjust_cfa_offset 8096
	.cfi_offset %rsp, -8112
	.cfi_adjust_cfa_offset 8112
	.cfi_offset %rsp, -8128
	.cfi_adjust_cfa_offset 8128
	.cfi_offset %rsp, -8144
	.cfi_adjust_cfa_offset 8144
	.cfi_offset %rsp, -8160
	.cfi_adjust_cfa_offset 8160
	.cfi_offset %rsp, -8176
	.cfi_adjust_cfa_offset 8176
	.cfi_offset %rsp, -8192
	.cfi_adjust_cfa_offset 8192
	.cfi_offset %rsp, -8208
	.cfi_adjust_cfa_offset 8208
	.cfi_offset %rsp, -8224
	.cfi_adjust_cfa_offset 8224
	.cfi_offset %rsp, -8240
	.cfi_adjust_cfa_offset 8240
	.cfi_offset %rsp, -8256
	.cfi_adjust_cfa_offset 8256
	.cfi_offset %rsp, -8272
	.cfi_adjust_cfa_offset 8272
	.cfi_offset %rsp, -8288
	.cfi_adjust_cfa_offset 8288
	.cfi_offset %rsp, -8304
	.cfi_adjust_cfa_offset 8304
	.cfi_offset %rsp, -8320
	.cfi_adjust_cfa_offset 8320
	.cfi_offset %rsp, -8336
	.cfi_adjust_cfa_offset 8336
	.cfi_offset %rsp, -8352
	.cfi_adjust_cfa_offset 8352
	.cfi_offset %rsp, -8368
	.cfi_adjust_cfa_offset 8368
	.cfi_offset %rsp, -8384
	.cfi_adjust_cfa_offset 8384
	.cfi_offset %rsp, -8400
	.cfi_adjust_cfa_offset 8400
	.cfi_offset %rsp, -8416
	.cfi_adjust_cfa_offset 8416
	.cfi_offset %rsp, -8432
	.cfi_adjust_cfa_offset 8432
	.cfi_offset %rsp, -8448
	.cfi_adjust_cfa_offset 8448
	.cfi_offset %rsp, -8464
	.cfi_adjust_cfa_offset 8464
	.cfi_offset %rsp, -8480
	.cfi_adjust_cfa_offset 8480
	.cfi_offset %rsp, -8496
	.cfi_adjust_cfa_offset 8496
	.cfi_offset %rsp, -8512
	.cfi_adjust_cfa_offset 8512
	.cfi_offset %rsp, -8528
	.cfi_adjust_cfa_offset 8528
	.cfi_offset %rsp, -8544
	.cfi_adjust_cfa_offset 8544
	.cfi_offset %rsp, -8560
	.cfi_adjust_cfa_offset 8560
	.cfi_offset %rsp, -8576
	.cfi_adjust_cfa_offset 8576
	.cfi_offset %rsp, -8592
	.cfi_adjust_cfa_offset 8592
	.cfi_offset %rsp, -8608
	.cfi_adjust_cfa_offset 8608
	.cfi_offset %rsp, -8624
	.cfi_adjust_cfa_offset 8624
	.cfi_offset %rsp, -8640
	.cfi_adjust_cfa_offset 8640
	.cfi_offset %rsp, -8656
	.cfi_adjust_cfa_offset 8656
	.cfi_offset %rsp, -8672
	.cfi_adjust_cfa_offset 8672
	.cfi_offset %rsp, -8688
	.cfi_adjust_cfa_offset 8688
	.cfi_offset %rsp, -8704
	.cfi_adjust_cfa_offset 8704
	.cfi_offset %rsp, -8720
	.cfi_adjust_cfa_offset 8720
	.cfi_offset %rsp, -8736
	.cfi_adjust_cfa_offset 8736
	.cfi_offset %rsp, -8752
	.cfi_adjust_cfa_offset 8752
	.cfi_offset %rsp, -8768
	.cfi_adjust_cfa_offset 8768
	.cfi_offset %rsp, -8784
	.cfi_adjust_cfa_offset 8784
	.cfi_offset %rsp, -8800
	.cfi_adjust_cfa_offset 8800
	.cfi_offset %rsp, -8816
	.cfi_adjust_cfa_offset 8816
	.cfi_offset %rsp, -8832
	.cfi_adjust_cfa_offset 8832
	.cfi_offset %rsp, -8848
	.cfi_adjust_cfa_offset 8848
	.cfi_offset %rsp, -8864
	.cfi_adjust_cfa_offset 8864
	.cfi_offset %rsp, -8880
	.cfi_adjust_cfa_offset 8880
	.cfi_offset %rsp, -8896
	.cfi_adjust_cfa_offset 8896
	.cfi_offset %rsp, -8912
	.cfi_adjust_cfa_offset 8912
	.cfi_offset %rsp, -8928
	.cfi_adjust_cfa_offset 8928
	.cfi_offset %rsp, -8944
	.cfi_adjust_cfa_offset 8944
	.cfi_offset %rsp, -8960
	.cfi_adjust_cfa_offset 8960
	.cfi_offset %rsp, -8976
	.cfi_adjust_cfa_offset 8976
	.cfi_offset %rsp, -8992
	.cfi_adjust_cfa_offset 8992
	.cfi_offset %rsp, -9008
	.cfi_adjust_cfa_offset 9008
	.cfi_offset %rsp, -9024
	.cfi_adjust_cfa_offset 9024
	.cfi_offset %rsp, -9040
	.cfi_adjust_cfa_offset 9040
	.cfi_offset %rsp, -9056
	.cfi_adjust_cfa_offset 9056
	.cfi_offset %rsp, -9072
	.cfi_adjust_cfa_offset 9072
	.cfi_offset %rsp, -9088
	.cfi_adjust_cfa_offset 9088
	.cfi_offset %rsp, -9104
	.cfi_adjust_cfa_offset 9104
	.cfi_offset %rsp, -9120
	.cfi_adjust_cfa_offset 9120
	.cfi_offset %rsp, -9136
	.cfi_adjust_cfa_offset 9136
	.cfi_offset %rsp, -9152
	.cfi_adjust_cfa_offset 9152
	.cfi_offset %rsp, -9168
	.cfi_adjust_cfa_offset 9168
	.cfi_offset %rsp, -9184
	.cfi_adjust_cfa_offset 9184
	.cfi_offset %rsp, -9200
	.cfi_adjust_cfa_offset 9200
	.cfi_offset %rsp, -9216
	.cfi_adjust_cfa_offset 9216
	.cfi_offset %rsp, -9232
	.cfi_adjust_cfa_offset 9232
	.cfi_offset %rsp, -9248
	.cfi_adjust_cfa_offset 9248
	.cfi_offset %rsp, -9264
	.cfi_adjust_cfa_offset 9264
	.cfi_offset %rsp, -9280
	.cfi_adjust_cfa_offset 9280
	.cfi_offset %rsp, -9296
	.cfi_adjust_cfa_offset 9296
	.cfi_offset %rsp, -9312
	.cfi_adjust_cfa_offset 9312
	.cfi_offset %rsp, -9328
	.cfi_adjust_cfa_offset 9328
	.cfi_offset %rsp, -9344
	.cfi_adjust_cfa_offset 9344
	.cfi_offset %rsp, -9360
	.cfi_adjust_cfa_offset 9360
	.cfi_offset %rsp, -9376
	.cfi_adjust_cfa_offset 9376
	.cfi_offset %rsp, -9392
	.cfi_adjust_cfa_offset 9392
	.cfi_offset %rsp, -9408
	.cfi_adjust_cfa_offset 9408
	.cfi_offset %rsp, -9424
	.cfi_adjust_cfa_offset 9424
	.cfi_offset %rsp, -9440
	.cfi_adjust_cfa_offset 9440
	.cfi_offset %rsp, -9456
	.cfi_adjust_cfa_offset 9456
	.cfi_offset %rsp, -9472
	.cfi_adjust_cfa_offset 9472
	.cfi_offset %rsp, -9488
	.cfi_adjust_cfa_offset 9488
	.cfi_offset %rsp, -9504
	.cfi_adjust_cfa_offset 9504
	.cfi_offset %rsp, -9520
	.cfi_adjust_cfa_offset 9520
	.cfi_offset %rsp, -9536
	.cfi_adjust_cfa_offset 9536
	.cfi_offset %rsp, -9552
	.cfi_adjust_cfa_offset 9552
	.cfi_offset %rsp, -9568
	.cfi_adjust_cfa_offset 9568
	.cfi_offset %rsp, -9584
	.cfi_adjust_cfa_offset 9584
	.cfi_offset %rsp, -9600
	.cfi_adjust_cfa_offset 9600
	.cfi_offset %rsp, -9616
	.cfi_adjust_cfa_offset 9616
	.cfi_offset %rsp, -9632
	.cfi_adjust_cfa_offset 9632
	.cfi_offset %rsp, -9648
	.cfi_adjust_cfa_offset 9648
	.cfi_offset %rsp, -9664
	.cfi_adjust_cfa_offset 9664
	.cfi_offset %rsp, -9680
	.cfi_adjust_cfa_offset 9680
	.cfi_offset %rsp, -9696
	.cfi_adjust_cfa_offset 9696
	.cfi_offset %rsp, -9712
	.cfi_adjust_cfa_offset 9712
	.cfi_offset %rsp, -9728
	.cfi_adjust_cfa_offset 9728
	.cfi_offset %rsp, -9744
	.cfi_adjust_cfa_offset 9744
	.cfi_offset %rsp, -9760
	.cfi_adjust_cfa_offset 9760
	.cfi_offset %rsp, -9776
	.cfi_adjust_cfa_offset 9776
	.cfi_offset %rsp, -9792
	.cfi_adjust_cfa_offset 9792
	.cfi_offset %rsp, -9808
	.cfi_adjust_cfa_offset 9808
	.cfi_offset %rsp, -9824
	.cfi